   1              		.file	"test.cpp"
   2              	# GNU C++14 (Ubuntu 9.4.0-1ubuntu1~20.04.1) version 9.4.0 (x86_64-linux-gnu)
   3              	#	compiled by GNU C version 9.4.0, GMP version 6.2.0, MPFR version 4.0.2, MPC version 1.1.0, isl ve
   4              	
   5              	# GGC heuristics: --param ggc-min-expand=100 --param ggc-min-heapsize=131072
   6              	# options passed:  -imultiarch x86_64-linux-gnu -D_GNU_SOURCE test.cpp
   7              	# -mtune=generic -march=x86-64 -g -O0 -fverbose-asm
   8              	# -fasynchronous-unwind-tables -fstack-protector-strong -Wformat
   9              	# -Wformat-security -fstack-clash-protection -fcf-protection
  10              	# options enabled:  -fPIC -fPIE -faggressive-loop-optimizations
  11              	# -fassume-phsa -fasynchronous-unwind-tables -fauto-inc-dec -fcommon
  12              	# -fdelete-null-pointer-checks -fdwarf2-cfi-asm -fearly-inlining
  13              	# -feliminate-unused-debug-types -fexceptions -ffp-int-builtin-inexact
  14              	# -ffunction-cse -fgcse-lm -fgnu-runtime -fgnu-unique -fident
  15              	# -finline-atomics -fipa-stack-alignment -fira-hoist-pressure
  16              	# -fira-share-save-slots -fira-share-spill-slots -fivopts
  17              	# -fkeep-static-consts -fleading-underscore -flifetime-dse
  18              	# -flto-odr-type-merging -fmath-errno -fmerge-debug-strings -fpeephole
  19              	# -fplt -fprefetch-loop-arrays -freg-struct-return
  20              	# -fsched-critical-path-heuristic -fsched-dep-count-heuristic
  21              	# -fsched-group-heuristic -fsched-interblock -fsched-last-insn-heuristic
  22              	# -fsched-rank-heuristic -fsched-spec -fsched-spec-insn-heuristic
  23              	# -fsched-stalled-insns-dep -fschedule-fusion -fsemantic-interposition
  24              	# -fshow-column -fshrink-wrap-separate -fsigned-zeros
  25              	# -fsplit-ivs-in-unroller -fssa-backprop -fstack-clash-protection
  26              	# -fstack-protector-strong -fstdarg-opt -fstrict-volatile-bitfields
  27              	# -fsync-libcalls -ftrapping-math -ftree-cselim -ftree-forwprop
  28              	# -ftree-loop-if-convert -ftree-loop-im -ftree-loop-ivcanon
  29              	# -ftree-loop-optimize -ftree-parallelize-loops= -ftree-phiprop
  30              	# -ftree-reassoc -ftree-scev-cprop -funit-at-a-time -funwind-tables
  31              	# -fverbose-asm -fzero-initialized-in-bss -m128bit-long-double -m64 -m80387
  32              	# -malign-stringops -mavx256-split-unaligned-load
  33              	# -mavx256-split-unaligned-store -mfancy-math-387 -mfp-ret-in-387 -mfxsr
  34              	# -mglibc -mieee-fp -mlong-double-80 -mmmx -mno-sse4 -mpush-args -mred-zone
  35              	# -msse -msse2 -mstv -mtls-direct-seg-refs -mvzeroupper
  36              	
  37              		.text
  38              	.Ltext0:
  39              		.section	.text._ZNKSt9type_infoeqERKS_,"axG",@progbits,_ZNKSt9type_infoeqERKS_,comdat
  40              		.align 2
  41              		.weak	_ZNKSt9type_infoeqERKS_
  43              	_ZNKSt9type_infoeqERKS_:
  44              	.LFB20:
  45              		.file 1 "/usr/include/c++/9/typeinfo"
   1:/usr/include/c++/9/typeinfo **** // RTTI support for -*- C++ -*-
   2:/usr/include/c++/9/typeinfo **** // Copyright (C) 1994-2019 Free Software Foundation, Inc.
   3:/usr/include/c++/9/typeinfo **** //
   4:/usr/include/c++/9/typeinfo **** // This file is part of GCC.
   5:/usr/include/c++/9/typeinfo **** //
   6:/usr/include/c++/9/typeinfo **** // GCC is free software; you can redistribute it and/or modify
   7:/usr/include/c++/9/typeinfo **** // it under the terms of the GNU General Public License as published by
   8:/usr/include/c++/9/typeinfo **** // the Free Software Foundation; either version 3, or (at your option)
   9:/usr/include/c++/9/typeinfo **** // any later version.
  10:/usr/include/c++/9/typeinfo **** //
  11:/usr/include/c++/9/typeinfo **** // GCC is distributed in the hope that it will be useful,
  12:/usr/include/c++/9/typeinfo **** // but WITHOUT ANY WARRANTY; without even the implied warranty of
  13:/usr/include/c++/9/typeinfo **** // MERCHANTABILITY or FITNESS FOR A PARTICULAR PURPOSE.  See the
  14:/usr/include/c++/9/typeinfo **** // GNU General Public License for more details.
  15:/usr/include/c++/9/typeinfo **** //
  16:/usr/include/c++/9/typeinfo **** // Under Section 7 of GPL version 3, you are granted additional
  17:/usr/include/c++/9/typeinfo **** // permissions described in the GCC Runtime Library Exception, version
  18:/usr/include/c++/9/typeinfo **** // 3.1, as published by the Free Software Foundation.
  19:/usr/include/c++/9/typeinfo **** 
  20:/usr/include/c++/9/typeinfo **** // You should have received a copy of the GNU General Public License and
  21:/usr/include/c++/9/typeinfo **** // a copy of the GCC Runtime Library Exception along with this program;
  22:/usr/include/c++/9/typeinfo **** // see the files COPYING3 and COPYING.RUNTIME respectively.  If not, see
  23:/usr/include/c++/9/typeinfo **** // <http://www.gnu.org/licenses/>.
  24:/usr/include/c++/9/typeinfo **** 
  25:/usr/include/c++/9/typeinfo **** /** @file typeinfo
  26:/usr/include/c++/9/typeinfo ****  *  This is a Standard C++ Library header.
  27:/usr/include/c++/9/typeinfo ****  */
  28:/usr/include/c++/9/typeinfo **** 
  29:/usr/include/c++/9/typeinfo **** #ifndef _TYPEINFO
  30:/usr/include/c++/9/typeinfo **** #define _TYPEINFO
  31:/usr/include/c++/9/typeinfo **** 
  32:/usr/include/c++/9/typeinfo **** #pragma GCC system_header
  33:/usr/include/c++/9/typeinfo **** 
  34:/usr/include/c++/9/typeinfo **** #include <bits/exception.h>
  35:/usr/include/c++/9/typeinfo **** #if __cplusplus >= 201103L
  36:/usr/include/c++/9/typeinfo **** #include <bits/hash_bytes.h>
  37:/usr/include/c++/9/typeinfo **** #endif
  38:/usr/include/c++/9/typeinfo **** 
  39:/usr/include/c++/9/typeinfo **** #pragma GCC visibility push(default)
  40:/usr/include/c++/9/typeinfo **** 
  41:/usr/include/c++/9/typeinfo **** extern "C++" {
  42:/usr/include/c++/9/typeinfo **** 
  43:/usr/include/c++/9/typeinfo **** namespace __cxxabiv1
  44:/usr/include/c++/9/typeinfo **** {
  45:/usr/include/c++/9/typeinfo ****   class __class_type_info;
  46:/usr/include/c++/9/typeinfo **** } // namespace __cxxabiv1
  47:/usr/include/c++/9/typeinfo **** 
  48:/usr/include/c++/9/typeinfo **** // Determine whether typeinfo names for the same type are merged (in which
  49:/usr/include/c++/9/typeinfo **** // case comparison can just compare pointers) or not (in which case strings
  50:/usr/include/c++/9/typeinfo **** // must be compared), and whether comparison is to be implemented inline or
  51:/usr/include/c++/9/typeinfo **** // not.  We used to do inline pointer comparison by default if weak symbols
  52:/usr/include/c++/9/typeinfo **** // are available, but even with weak symbols sometimes names are not merged
  53:/usr/include/c++/9/typeinfo **** // when objects are loaded with RTLD_LOCAL, so now we always use strcmp by
  54:/usr/include/c++/9/typeinfo **** // default.  For ABI compatibility, we do the strcmp inline if weak symbols
  55:/usr/include/c++/9/typeinfo **** // are available, and out-of-line if not.  Out-of-line pointer comparison
  56:/usr/include/c++/9/typeinfo **** // is used where the object files are to be portable to multiple systems,
  57:/usr/include/c++/9/typeinfo **** // some of which may not be able to use pointer comparison, but the
  58:/usr/include/c++/9/typeinfo **** // particular system for which libstdc++ is being built can use pointer
  59:/usr/include/c++/9/typeinfo **** // comparison; in particular for most ARM EABI systems, where the ABI
  60:/usr/include/c++/9/typeinfo **** // specifies out-of-line comparison.  The compiler's target configuration
  61:/usr/include/c++/9/typeinfo **** // can override the defaults by defining __GXX_TYPEINFO_EQUALITY_INLINE to
  62:/usr/include/c++/9/typeinfo **** // 1 or 0 to indicate whether or not comparison is inline, and
  63:/usr/include/c++/9/typeinfo **** // __GXX_MERGED_TYPEINFO_NAMES to 1 or 0 to indicate whether or not pointer
  64:/usr/include/c++/9/typeinfo **** // comparison can be used.
  65:/usr/include/c++/9/typeinfo **** 
  66:/usr/include/c++/9/typeinfo **** #ifndef __GXX_MERGED_TYPEINFO_NAMES
  67:/usr/include/c++/9/typeinfo **** // By default, typeinfo names are not merged.
  68:/usr/include/c++/9/typeinfo **** #define __GXX_MERGED_TYPEINFO_NAMES 0
  69:/usr/include/c++/9/typeinfo **** #endif
  70:/usr/include/c++/9/typeinfo **** 
  71:/usr/include/c++/9/typeinfo **** // By default follow the old inline rules to avoid ABI changes.
  72:/usr/include/c++/9/typeinfo **** #ifndef __GXX_TYPEINFO_EQUALITY_INLINE
  73:/usr/include/c++/9/typeinfo ****   #if !__GXX_WEAK__
  74:/usr/include/c++/9/typeinfo ****     #define __GXX_TYPEINFO_EQUALITY_INLINE 0
  75:/usr/include/c++/9/typeinfo ****   #else
  76:/usr/include/c++/9/typeinfo ****     #define __GXX_TYPEINFO_EQUALITY_INLINE 1
  77:/usr/include/c++/9/typeinfo ****   #endif
  78:/usr/include/c++/9/typeinfo **** #endif
  79:/usr/include/c++/9/typeinfo **** 
  80:/usr/include/c++/9/typeinfo **** namespace std
  81:/usr/include/c++/9/typeinfo **** {
  82:/usr/include/c++/9/typeinfo ****   /**
  83:/usr/include/c++/9/typeinfo ****    *  @brief  Part of RTTI.
  84:/usr/include/c++/9/typeinfo ****    *
  85:/usr/include/c++/9/typeinfo ****    *  The @c type_info class describes type information generated by
  86:/usr/include/c++/9/typeinfo ****    *  an implementation.
  87:/usr/include/c++/9/typeinfo ****   */
  88:/usr/include/c++/9/typeinfo ****   class type_info
  89:/usr/include/c++/9/typeinfo ****   {
  90:/usr/include/c++/9/typeinfo ****   public:
  91:/usr/include/c++/9/typeinfo ****     /** Destructor first. Being the first non-inline virtual function, this
  92:/usr/include/c++/9/typeinfo ****      *  controls in which translation unit the vtable is emitted. The
  93:/usr/include/c++/9/typeinfo ****      *  compiler makes use of that information to know where to emit
  94:/usr/include/c++/9/typeinfo ****      *  the runtime-mandated type_info structures in the new-abi.  */
  95:/usr/include/c++/9/typeinfo ****     virtual ~type_info();
  96:/usr/include/c++/9/typeinfo **** 
  97:/usr/include/c++/9/typeinfo ****     /** Returns an @e implementation-defined byte string; this is not
  98:/usr/include/c++/9/typeinfo ****      *  portable between compilers!  */
  99:/usr/include/c++/9/typeinfo ****     const char* name() const _GLIBCXX_NOEXCEPT
 100:/usr/include/c++/9/typeinfo ****     { return __name[0] == '*' ? __name + 1 : __name; }
 101:/usr/include/c++/9/typeinfo **** 
 102:/usr/include/c++/9/typeinfo **** #if !__GXX_TYPEINFO_EQUALITY_INLINE
 103:/usr/include/c++/9/typeinfo ****     // In old abi, or when weak symbols are not supported, there can
 104:/usr/include/c++/9/typeinfo ****     // be multiple instances of a type_info object for one
 105:/usr/include/c++/9/typeinfo ****     // type. Uniqueness must use the _name value, not object address.
 106:/usr/include/c++/9/typeinfo ****     bool before(const type_info& __arg) const _GLIBCXX_NOEXCEPT;
 107:/usr/include/c++/9/typeinfo ****     bool operator==(const type_info& __arg) const _GLIBCXX_NOEXCEPT;
 108:/usr/include/c++/9/typeinfo **** #else
 109:/usr/include/c++/9/typeinfo ****   #if !__GXX_MERGED_TYPEINFO_NAMES
 110:/usr/include/c++/9/typeinfo ****     /** Returns true if @c *this precedes @c __arg in the implementation's
 111:/usr/include/c++/9/typeinfo ****      *  collation order.  */
 112:/usr/include/c++/9/typeinfo ****     // Even with the new abi, on systems that support dlopen
 113:/usr/include/c++/9/typeinfo ****     // we can run into cases where type_info names aren't merged,
 114:/usr/include/c++/9/typeinfo ****     // so we still need to do string comparison.
 115:/usr/include/c++/9/typeinfo ****     bool before(const type_info& __arg) const _GLIBCXX_NOEXCEPT
 116:/usr/include/c++/9/typeinfo ****     { return (__name[0] == '*' && __arg.__name[0] == '*')
 117:/usr/include/c++/9/typeinfo **** 	? __name < __arg.__name
 118:/usr/include/c++/9/typeinfo **** 	: __builtin_strcmp (__name, __arg.__name) < 0; }
 119:/usr/include/c++/9/typeinfo **** 
 120:/usr/include/c++/9/typeinfo ****     bool operator==(const type_info& __arg) const _GLIBCXX_NOEXCEPT
  46              		.loc 1 120 10
  47              		.cfi_startproc
  48 0000 F30F1EFA 		endbr64	
  49 0004 55       		pushq	%rbp	#
  50              		.cfi_def_cfa_offset 16
  51              		.cfi_offset 6, -16
  52 0005 4889E5   		movq	%rsp, %rbp	#,
  53              		.cfi_def_cfa_register 6
  54 0008 4883EC10 		subq	$16, %rsp	#,
  55 000c 48897DF8 		movq	%rdi, -8(%rbp)	# this, this
  56 0010 488975F0 		movq	%rsi, -16(%rbp)	# __arg, __arg
  57              	# /usr/include/c++/9/typeinfo:122:       return ((__name == __arg.__name)
 121:/usr/include/c++/9/typeinfo ****     {
 122:/usr/include/c++/9/typeinfo ****       return ((__name == __arg.__name)
  58              		.loc 1 122 16
  59 0014 488B45F8 		movq	-8(%rbp), %rax	# this, tmp91
  60 0018 488B5008 		movq	8(%rax), %rdx	# this_10(D)->__name, _1
  61              	# /usr/include/c++/9/typeinfo:122:       return ((__name == __arg.__name)
  62              		.loc 1 122 32
  63 001c 488B45F0 		movq	-16(%rbp), %rax	# __arg, tmp92
  64 0020 488B4008 		movq	8(%rax), %rax	# __arg_11(D)->__name, _2
  65              	# /usr/include/c++/9/typeinfo:123: 	      || (__name[0] != '*' &&
 123:/usr/include/c++/9/typeinfo **** 	      || (__name[0] != '*' &&
  66              		.loc 1 123 8
  67 0024 4839C2   		cmpq	%rax, %rdx	# _2, _1
  68 0027 742E     		je	.L2	#,
  69              	# /usr/include/c++/9/typeinfo:123: 	      || (__name[0] != '*' &&
  70              		.loc 1 123 12 discriminator 2
  71 0029 488B45F8 		movq	-8(%rbp), %rax	# this, tmp93
  72 002d 488B4008 		movq	8(%rax), %rax	# this_10(D)->__name, _3
  73              	# /usr/include/c++/9/typeinfo:123: 	      || (__name[0] != '*' &&
  74              		.loc 1 123 20 discriminator 2
  75 0031 0FB600   		movzbl	(%rax), %eax	# *_3, _4
  76              	# /usr/include/c++/9/typeinfo:123: 	      || (__name[0] != '*' &&
  77              		.loc 1 123 8 discriminator 2
  78 0034 3C2A     		cmpb	$42, %al	#, _4
  79 0036 7426     		je	.L3	#,
  80              	# /usr/include/c++/9/typeinfo:124: 		  __builtin_strcmp (__name, __arg.__name) == 0));
 124:/usr/include/c++/9/typeinfo **** 		  __builtin_strcmp (__name, __arg.__name) == 0));
  81              		.loc 1 124 37 discriminator 3
  82 0038 488B45F0 		movq	-16(%rbp), %rax	# __arg, tmp94
  83 003c 488B5008 		movq	8(%rax), %rdx	# __arg_11(D)->__name, _5
  84              	# /usr/include/c++/9/typeinfo:124: 		  __builtin_strcmp (__name, __arg.__name) == 0));
  85              		.loc 1 124 23 discriminator 3
  86 0040 488B45F8 		movq	-8(%rbp), %rax	# this, tmp95
  87 0044 488B4008 		movq	8(%rax), %rax	# this_10(D)->__name, _6
  88              	# /usr/include/c++/9/typeinfo:124: 		  __builtin_strcmp (__name, __arg.__name) == 0));
  89              		.loc 1 124 22 discriminator 3
  90 0048 4889D6   		movq	%rdx, %rsi	# _5,
  91 004b 4889C7   		movq	%rax, %rdi	# _6,
  92 004e E8000000 		call	strcmp@PLT	#
  92      00
  93              	# /usr/include/c++/9/typeinfo:123: 	      || (__name[0] != '*' &&
 123:/usr/include/c++/9/typeinfo **** 	      || (__name[0] != '*' &&
  94              		.loc 1 123 29 discriminator 3
  95 0053 85C0     		testl	%eax, %eax	# _7
  96 0055 7507     		jne	.L3	#,
  97              	.L2:
  98              	# /usr/include/c++/9/typeinfo:123: 	      || (__name[0] != '*' &&
 123:/usr/include/c++/9/typeinfo **** 	      || (__name[0] != '*' &&
  99              		.loc 1 123 8 discriminator 5
 100 0057 B8010000 		movl	$1, %eax	#, iftmp.3_8
 100      00
 101 005c EB05     		jmp	.L4	#
 102              	.L3:
 103              	# /usr/include/c++/9/typeinfo:123: 	      || (__name[0] != '*' &&
 123:/usr/include/c++/9/typeinfo **** 	      || (__name[0] != '*' &&
 104              		.loc 1 123 8 is_stmt 0 discriminator 6
 105 005e B8000000 		movl	$0, %eax	#, iftmp.3_8
 105      00
 106              	.L4:
 107              	# /usr/include/c++/9/typeinfo:125:     }
 125:/usr/include/c++/9/typeinfo ****     }
 108              		.loc 1 125 5 is_stmt 1
 109 0063 C9       		leave	
 110              		.cfi_def_cfa 7, 8
 111 0064 C3       		ret	
 112              		.cfi_endproc
 113              	.LFE20:
 115              		.section	.text._ZnwmPv,"axG",@progbits,_ZnwmPv,comdat
 116              		.weak	_ZnwmPv
 118              	_ZnwmPv:
 119              	.LFB38:
 120              		.file 2 "/usr/include/c++/9/new"
   1:/usr/include/c++/9/new **** // The -*- C++ -*- dynamic memory management header.
   2:/usr/include/c++/9/new **** 
   3:/usr/include/c++/9/new **** // Copyright (C) 1994-2019 Free Software Foundation, Inc.
   4:/usr/include/c++/9/new **** 
   5:/usr/include/c++/9/new **** // This file is part of GCC.
   6:/usr/include/c++/9/new **** //
   7:/usr/include/c++/9/new **** // GCC is free software; you can redistribute it and/or modify
   8:/usr/include/c++/9/new **** // it under the terms of the GNU General Public License as published by
   9:/usr/include/c++/9/new **** // the Free Software Foundation; either version 3, or (at your option)
  10:/usr/include/c++/9/new **** // any later version.
  11:/usr/include/c++/9/new **** // 
  12:/usr/include/c++/9/new **** // GCC is distributed in the hope that it will be useful,
  13:/usr/include/c++/9/new **** // but WITHOUT ANY WARRANTY; without even the implied warranty of
  14:/usr/include/c++/9/new **** // MERCHANTABILITY or FITNESS FOR A PARTICULAR PURPOSE.  See the
  15:/usr/include/c++/9/new **** // GNU General Public License for more details.
  16:/usr/include/c++/9/new **** // 
  17:/usr/include/c++/9/new **** // Under Section 7 of GPL version 3, you are granted additional
  18:/usr/include/c++/9/new **** // permissions described in the GCC Runtime Library Exception, version
  19:/usr/include/c++/9/new **** // 3.1, as published by the Free Software Foundation.
  20:/usr/include/c++/9/new **** 
  21:/usr/include/c++/9/new **** // You should have received a copy of the GNU General Public License and
  22:/usr/include/c++/9/new **** // a copy of the GCC Runtime Library Exception along with this program;
  23:/usr/include/c++/9/new **** // see the files COPYING3 and COPYING.RUNTIME respectively.  If not, see
  24:/usr/include/c++/9/new **** // <http://www.gnu.org/licenses/>.
  25:/usr/include/c++/9/new **** 
  26:/usr/include/c++/9/new **** /** @file new
  27:/usr/include/c++/9/new ****  *  This is a Standard C++ Library header.
  28:/usr/include/c++/9/new ****  *
  29:/usr/include/c++/9/new ****  *  The header @c new defines several functions to manage dynamic memory and
  30:/usr/include/c++/9/new ****  *  handling memory allocation errors; see
  31:/usr/include/c++/9/new ****  *  http://gcc.gnu.org/onlinedocs/libstdc++/18_support/howto.html#4 for more.
  32:/usr/include/c++/9/new ****  */
  33:/usr/include/c++/9/new **** 
  34:/usr/include/c++/9/new **** #ifndef _NEW
  35:/usr/include/c++/9/new **** #define _NEW
  36:/usr/include/c++/9/new **** 
  37:/usr/include/c++/9/new **** #pragma GCC system_header
  38:/usr/include/c++/9/new **** 
  39:/usr/include/c++/9/new **** #include <bits/c++config.h>
  40:/usr/include/c++/9/new **** #include <exception>
  41:/usr/include/c++/9/new **** 
  42:/usr/include/c++/9/new **** #pragma GCC visibility push(default)
  43:/usr/include/c++/9/new **** 
  44:/usr/include/c++/9/new **** extern "C++" {
  45:/usr/include/c++/9/new **** 
  46:/usr/include/c++/9/new **** namespace std 
  47:/usr/include/c++/9/new **** {
  48:/usr/include/c++/9/new ****   /**
  49:/usr/include/c++/9/new ****    *  @brief  Exception possibly thrown by @c new.
  50:/usr/include/c++/9/new ****    *  @ingroup exceptions
  51:/usr/include/c++/9/new ****    *
  52:/usr/include/c++/9/new ****    *  @c bad_alloc (or classes derived from it) is used to report allocation
  53:/usr/include/c++/9/new ****    *  errors from the throwing forms of @c new.  */
  54:/usr/include/c++/9/new ****   class bad_alloc : public exception 
  55:/usr/include/c++/9/new ****   {
  56:/usr/include/c++/9/new ****   public:
  57:/usr/include/c++/9/new ****     bad_alloc() throw() { }
  58:/usr/include/c++/9/new **** 
  59:/usr/include/c++/9/new **** #if __cplusplus >= 201103L
  60:/usr/include/c++/9/new ****     bad_alloc(const bad_alloc&) = default;
  61:/usr/include/c++/9/new ****     bad_alloc& operator=(const bad_alloc&) = default;
  62:/usr/include/c++/9/new **** #endif
  63:/usr/include/c++/9/new **** 
  64:/usr/include/c++/9/new ****     // This declaration is not useless:
  65:/usr/include/c++/9/new ****     // http://gcc.gnu.org/onlinedocs/gcc-3.0.2/gcc_6.html#SEC118
  66:/usr/include/c++/9/new ****     virtual ~bad_alloc() throw();
  67:/usr/include/c++/9/new **** 
  68:/usr/include/c++/9/new ****     // See comment in eh_exception.cc.
  69:/usr/include/c++/9/new ****     virtual const char* what() const throw();
  70:/usr/include/c++/9/new ****   };
  71:/usr/include/c++/9/new **** 
  72:/usr/include/c++/9/new **** #if __cplusplus >= 201103L
  73:/usr/include/c++/9/new ****   class bad_array_new_length : public bad_alloc
  74:/usr/include/c++/9/new ****   {
  75:/usr/include/c++/9/new ****   public:
  76:/usr/include/c++/9/new ****     bad_array_new_length() throw() { }
  77:/usr/include/c++/9/new **** 
  78:/usr/include/c++/9/new ****     // This declaration is not useless:
  79:/usr/include/c++/9/new ****     // http://gcc.gnu.org/onlinedocs/gcc-3.0.2/gcc_6.html#SEC118
  80:/usr/include/c++/9/new ****     virtual ~bad_array_new_length() throw();
  81:/usr/include/c++/9/new **** 
  82:/usr/include/c++/9/new ****     // See comment in eh_exception.cc.
  83:/usr/include/c++/9/new ****     virtual const char* what() const throw();
  84:/usr/include/c++/9/new ****   };
  85:/usr/include/c++/9/new **** #endif
  86:/usr/include/c++/9/new **** 
  87:/usr/include/c++/9/new **** #if __cpp_aligned_new
  88:/usr/include/c++/9/new ****   enum class align_val_t: size_t {};
  89:/usr/include/c++/9/new **** #endif
  90:/usr/include/c++/9/new **** 
  91:/usr/include/c++/9/new ****   struct nothrow_t
  92:/usr/include/c++/9/new ****   {
  93:/usr/include/c++/9/new **** #if __cplusplus >= 201103L
  94:/usr/include/c++/9/new ****     explicit nothrow_t() = default;
  95:/usr/include/c++/9/new **** #endif
  96:/usr/include/c++/9/new ****   };
  97:/usr/include/c++/9/new **** 
  98:/usr/include/c++/9/new ****   extern const nothrow_t nothrow;
  99:/usr/include/c++/9/new **** 
 100:/usr/include/c++/9/new ****   /** If you write your own error handler to be called by @c new, it must
 101:/usr/include/c++/9/new ****    *  be of this type.  */
 102:/usr/include/c++/9/new ****   typedef void (*new_handler)();
 103:/usr/include/c++/9/new **** 
 104:/usr/include/c++/9/new ****   /// Takes a replacement handler as the argument, returns the
 105:/usr/include/c++/9/new ****   /// previous handler.
 106:/usr/include/c++/9/new ****   new_handler set_new_handler(new_handler) throw();
 107:/usr/include/c++/9/new **** 
 108:/usr/include/c++/9/new **** #if __cplusplus >= 201103L
 109:/usr/include/c++/9/new ****   /// Return the current new handler.
 110:/usr/include/c++/9/new ****   new_handler get_new_handler() noexcept;
 111:/usr/include/c++/9/new **** #endif
 112:/usr/include/c++/9/new **** } // namespace std
 113:/usr/include/c++/9/new **** 
 114:/usr/include/c++/9/new **** //@{
 115:/usr/include/c++/9/new **** /** These are replaceable signatures:
 116:/usr/include/c++/9/new ****  *  - normal single new and delete (no arguments, throw @c bad_alloc on error)
 117:/usr/include/c++/9/new ****  *  - normal array new and delete (same)
 118:/usr/include/c++/9/new ****  *  - @c nothrow single new and delete (take a @c nothrow argument, return
 119:/usr/include/c++/9/new ****  *    @c NULL on error)
 120:/usr/include/c++/9/new ****  *  - @c nothrow array new and delete (same)
 121:/usr/include/c++/9/new ****  *
 122:/usr/include/c++/9/new ****  *  Placement new and delete signatures (take a memory address argument,
 123:/usr/include/c++/9/new ****  *  does nothing) may not be replaced by a user's program.
 124:/usr/include/c++/9/new **** */
 125:/usr/include/c++/9/new **** _GLIBCXX_NODISCARD void* operator new(std::size_t) _GLIBCXX_THROW (std::bad_alloc)
 126:/usr/include/c++/9/new ****   __attribute__((__externally_visible__));
 127:/usr/include/c++/9/new **** _GLIBCXX_NODISCARD void* operator new[](std::size_t) _GLIBCXX_THROW (std::bad_alloc)
 128:/usr/include/c++/9/new ****   __attribute__((__externally_visible__));
 129:/usr/include/c++/9/new **** void operator delete(void*) _GLIBCXX_USE_NOEXCEPT
 130:/usr/include/c++/9/new ****   __attribute__((__externally_visible__));
 131:/usr/include/c++/9/new **** void operator delete[](void*) _GLIBCXX_USE_NOEXCEPT
 132:/usr/include/c++/9/new ****   __attribute__((__externally_visible__));
 133:/usr/include/c++/9/new **** #if __cpp_sized_deallocation
 134:/usr/include/c++/9/new **** void operator delete(void*, std::size_t) _GLIBCXX_USE_NOEXCEPT
 135:/usr/include/c++/9/new ****   __attribute__((__externally_visible__));
 136:/usr/include/c++/9/new **** void operator delete[](void*, std::size_t) _GLIBCXX_USE_NOEXCEPT
 137:/usr/include/c++/9/new ****   __attribute__((__externally_visible__));
 138:/usr/include/c++/9/new **** #endif
 139:/usr/include/c++/9/new **** _GLIBCXX_NODISCARD void* operator new(std::size_t, const std::nothrow_t&) _GLIBCXX_USE_NOEXCEPT
 140:/usr/include/c++/9/new ****   __attribute__((__externally_visible__, __malloc__));
 141:/usr/include/c++/9/new **** _GLIBCXX_NODISCARD void* operator new[](std::size_t, const std::nothrow_t&) _GLIBCXX_USE_NOEXCEPT
 142:/usr/include/c++/9/new ****   __attribute__((__externally_visible__, __malloc__));
 143:/usr/include/c++/9/new **** void operator delete(void*, const std::nothrow_t&) _GLIBCXX_USE_NOEXCEPT
 144:/usr/include/c++/9/new ****   __attribute__((__externally_visible__));
 145:/usr/include/c++/9/new **** void operator delete[](void*, const std::nothrow_t&) _GLIBCXX_USE_NOEXCEPT
 146:/usr/include/c++/9/new ****   __attribute__((__externally_visible__));
 147:/usr/include/c++/9/new **** #if __cpp_aligned_new
 148:/usr/include/c++/9/new **** _GLIBCXX_NODISCARD void* operator new(std::size_t, std::align_val_t)
 149:/usr/include/c++/9/new ****   __attribute__((__externally_visible__));
 150:/usr/include/c++/9/new **** _GLIBCXX_NODISCARD void* operator new(std::size_t, std::align_val_t, const std::nothrow_t&)
 151:/usr/include/c++/9/new ****   _GLIBCXX_USE_NOEXCEPT __attribute__((__externally_visible__, __malloc__));
 152:/usr/include/c++/9/new **** void operator delete(void*, std::align_val_t)
 153:/usr/include/c++/9/new ****   _GLIBCXX_USE_NOEXCEPT __attribute__((__externally_visible__));
 154:/usr/include/c++/9/new **** void operator delete(void*, std::align_val_t, const std::nothrow_t&)
 155:/usr/include/c++/9/new ****   _GLIBCXX_USE_NOEXCEPT __attribute__((__externally_visible__));
 156:/usr/include/c++/9/new **** _GLIBCXX_NODISCARD void* operator new[](std::size_t, std::align_val_t)
 157:/usr/include/c++/9/new ****   __attribute__((__externally_visible__));
 158:/usr/include/c++/9/new **** _GLIBCXX_NODISCARD void* operator new[](std::size_t, std::align_val_t, const std::nothrow_t&)
 159:/usr/include/c++/9/new ****   _GLIBCXX_USE_NOEXCEPT __attribute__((__externally_visible__, __malloc__));
 160:/usr/include/c++/9/new **** void operator delete[](void*, std::align_val_t)
 161:/usr/include/c++/9/new ****   _GLIBCXX_USE_NOEXCEPT __attribute__((__externally_visible__));
 162:/usr/include/c++/9/new **** void operator delete[](void*, std::align_val_t, const std::nothrow_t&)
 163:/usr/include/c++/9/new ****   _GLIBCXX_USE_NOEXCEPT __attribute__((__externally_visible__));
 164:/usr/include/c++/9/new **** #if __cpp_sized_deallocation
 165:/usr/include/c++/9/new **** void operator delete(void*, std::size_t, std::align_val_t)
 166:/usr/include/c++/9/new ****   _GLIBCXX_USE_NOEXCEPT __attribute__((__externally_visible__));
 167:/usr/include/c++/9/new **** void operator delete[](void*, std::size_t, std::align_val_t)
 168:/usr/include/c++/9/new ****   _GLIBCXX_USE_NOEXCEPT __attribute__((__externally_visible__));
 169:/usr/include/c++/9/new **** #endif // __cpp_sized_deallocation
 170:/usr/include/c++/9/new **** #endif // __cpp_aligned_new
 171:/usr/include/c++/9/new **** 
 172:/usr/include/c++/9/new **** // Default placement versions of operator new.
 173:/usr/include/c++/9/new **** _GLIBCXX_NODISCARD inline void* operator new(std::size_t, void* __p) _GLIBCXX_USE_NOEXCEPT
 174:/usr/include/c++/9/new **** { return __p; }
 121              		.loc 2 174 1
 122              		.cfi_startproc
 123 0000 F30F1EFA 		endbr64	
 124 0004 55       		pushq	%rbp	#
 125              		.cfi_def_cfa_offset 16
 126              		.cfi_offset 6, -16
 127 0005 4889E5   		movq	%rsp, %rbp	#,
 128              		.cfi_def_cfa_register 6
 129 0008 48897DF8 		movq	%rdi, -8(%rbp)	# D.3452, D.3452
 130 000c 488975F0 		movq	%rsi, -16(%rbp)	# __p, __p
 131              	# /usr/include/c++/9/new:174: { return __p; }
 132              		.loc 2 174 10
 133 0010 488B45F0 		movq	-16(%rbp), %rax	# __p, _2
 134              	# /usr/include/c++/9/new:174: { return __p; }
 135              		.loc 2 174 15
 136 0014 5D       		popq	%rbp	#
 137              		.cfi_def_cfa 7, 8
 138 0015 C3       		ret	
 139              		.cfi_endproc
 140              	.LFE38:
 142              		.section	.text._ZdlPvS_,"axG",@progbits,_ZdlPvS_,comdat
 143              		.weak	_ZdlPvS_
 145              	_ZdlPvS_:
 146              	.LFB40:
 175:/usr/include/c++/9/new **** _GLIBCXX_NODISCARD inline void* operator new[](std::size_t, void* __p) _GLIBCXX_USE_NOEXCEPT
 176:/usr/include/c++/9/new **** { return __p; }
 177:/usr/include/c++/9/new **** 
 178:/usr/include/c++/9/new **** // Default placement versions of operator delete.
 179:/usr/include/c++/9/new **** inline void operator delete  (void*, void*) _GLIBCXX_USE_NOEXCEPT { }
 147              		.loc 2 179 67
 148              		.cfi_startproc
 149 0000 F30F1EFA 		endbr64	
 150 0004 55       		pushq	%rbp	#
 151              		.cfi_def_cfa_offset 16
 152              		.cfi_offset 6, -16
 153 0005 4889E5   		movq	%rsp, %rbp	#,
 154              		.cfi_def_cfa_register 6
 155 0008 48897DF8 		movq	%rdi, -8(%rbp)	# D.3460, D.3460
 156 000c 488975F0 		movq	%rsi, -16(%rbp)	# D.3461, D.3461
 157              	# /usr/include/c++/9/new:179: inline void operator delete  (void*, void*) _GLIBCXX_USE_NOEXCEPT { }
 158              		.loc 2 179 69
 159 0010 90       		nop	
 160 0011 5D       		popq	%rbp	#
 161              		.cfi_def_cfa 7, 8
 162 0012 C3       		ret	
 163              		.cfi_endproc
 164              	.LFE40:
 166              		.section	.rodata
 169              	_ZStL19piecewise_construct:
 170 0000 00       		.zero	1
 171              		.section	.data.rel.ro,"aw"
 172              		.align 8
 175              	_ZZL18__gthread_active_pvE20__gthread_active_ptr:
 176 0000 00000000 		.quad	_ZL28__gthrw___pthread_key_createPjPFvPvE
 176      00000000 
 177              		.text
 179              	_ZL18__gthread_active_pv:
 180              	.LFB460:
 181              		.file 3 "/usr/include/x86_64-linux-gnu/c++/9/bits/gthr-default.h"
   1:/usr/include/x86_64-linux-gnu/c++/9/bits/gthr-default.h **** /* Threads compatibility routines for libgcc2 and libobjc.  */
   2:/usr/include/x86_64-linux-gnu/c++/9/bits/gthr-default.h **** /* Compile this one with gcc.  */
   3:/usr/include/x86_64-linux-gnu/c++/9/bits/gthr-default.h **** /* Copyright (C) 1997-2019 Free Software Foundation, Inc.
   4:/usr/include/x86_64-linux-gnu/c++/9/bits/gthr-default.h **** 
   5:/usr/include/x86_64-linux-gnu/c++/9/bits/gthr-default.h **** This file is part of GCC.
   6:/usr/include/x86_64-linux-gnu/c++/9/bits/gthr-default.h **** 
   7:/usr/include/x86_64-linux-gnu/c++/9/bits/gthr-default.h **** GCC is free software; you can redistribute it and/or modify it under
   8:/usr/include/x86_64-linux-gnu/c++/9/bits/gthr-default.h **** the terms of the GNU General Public License as published by the Free
   9:/usr/include/x86_64-linux-gnu/c++/9/bits/gthr-default.h **** Software Foundation; either version 3, or (at your option) any later
  10:/usr/include/x86_64-linux-gnu/c++/9/bits/gthr-default.h **** version.
  11:/usr/include/x86_64-linux-gnu/c++/9/bits/gthr-default.h **** 
  12:/usr/include/x86_64-linux-gnu/c++/9/bits/gthr-default.h **** GCC is distributed in the hope that it will be useful, but WITHOUT ANY
  13:/usr/include/x86_64-linux-gnu/c++/9/bits/gthr-default.h **** WARRANTY; without even the implied warranty of MERCHANTABILITY or
  14:/usr/include/x86_64-linux-gnu/c++/9/bits/gthr-default.h **** FITNESS FOR A PARTICULAR PURPOSE.  See the GNU General Public License
  15:/usr/include/x86_64-linux-gnu/c++/9/bits/gthr-default.h **** for more details.
  16:/usr/include/x86_64-linux-gnu/c++/9/bits/gthr-default.h **** 
  17:/usr/include/x86_64-linux-gnu/c++/9/bits/gthr-default.h **** Under Section 7 of GPL version 3, you are granted additional
  18:/usr/include/x86_64-linux-gnu/c++/9/bits/gthr-default.h **** permissions described in the GCC Runtime Library Exception, version
  19:/usr/include/x86_64-linux-gnu/c++/9/bits/gthr-default.h **** 3.1, as published by the Free Software Foundation.
  20:/usr/include/x86_64-linux-gnu/c++/9/bits/gthr-default.h **** 
  21:/usr/include/x86_64-linux-gnu/c++/9/bits/gthr-default.h **** You should have received a copy of the GNU General Public License and
  22:/usr/include/x86_64-linux-gnu/c++/9/bits/gthr-default.h **** a copy of the GCC Runtime Library Exception along with this program;
  23:/usr/include/x86_64-linux-gnu/c++/9/bits/gthr-default.h **** see the files COPYING3 and COPYING.RUNTIME respectively.  If not, see
  24:/usr/include/x86_64-linux-gnu/c++/9/bits/gthr-default.h **** <http://www.gnu.org/licenses/>.  */
  25:/usr/include/x86_64-linux-gnu/c++/9/bits/gthr-default.h **** 
  26:/usr/include/x86_64-linux-gnu/c++/9/bits/gthr-default.h **** #ifndef _GLIBCXX_GCC_GTHR_POSIX_H
  27:/usr/include/x86_64-linux-gnu/c++/9/bits/gthr-default.h **** #define _GLIBCXX_GCC_GTHR_POSIX_H
  28:/usr/include/x86_64-linux-gnu/c++/9/bits/gthr-default.h **** 
  29:/usr/include/x86_64-linux-gnu/c++/9/bits/gthr-default.h **** /* POSIX threads specific definitions.
  30:/usr/include/x86_64-linux-gnu/c++/9/bits/gthr-default.h ****    Easy, since the interface is just one-to-one mapping.  */
  31:/usr/include/x86_64-linux-gnu/c++/9/bits/gthr-default.h **** 
  32:/usr/include/x86_64-linux-gnu/c++/9/bits/gthr-default.h **** #define __GTHREADS 1
  33:/usr/include/x86_64-linux-gnu/c++/9/bits/gthr-default.h **** #define __GTHREADS_CXX0X 1
  34:/usr/include/x86_64-linux-gnu/c++/9/bits/gthr-default.h **** 
  35:/usr/include/x86_64-linux-gnu/c++/9/bits/gthr-default.h **** #include <pthread.h>
  36:/usr/include/x86_64-linux-gnu/c++/9/bits/gthr-default.h **** 
  37:/usr/include/x86_64-linux-gnu/c++/9/bits/gthr-default.h **** #if ((defined(_LIBOBJC) || defined(_LIBOBJC_WEAK)) \
  38:/usr/include/x86_64-linux-gnu/c++/9/bits/gthr-default.h ****      || !defined(_GTHREAD_USE_MUTEX_TIMEDLOCK))
  39:/usr/include/x86_64-linux-gnu/c++/9/bits/gthr-default.h **** # include <unistd.h>
  40:/usr/include/x86_64-linux-gnu/c++/9/bits/gthr-default.h **** # if defined(_POSIX_TIMEOUTS) && _POSIX_TIMEOUTS >= 0
  41:/usr/include/x86_64-linux-gnu/c++/9/bits/gthr-default.h **** #  define _GTHREAD_USE_MUTEX_TIMEDLOCK 1
  42:/usr/include/x86_64-linux-gnu/c++/9/bits/gthr-default.h **** # else
  43:/usr/include/x86_64-linux-gnu/c++/9/bits/gthr-default.h **** #  define _GTHREAD_USE_MUTEX_TIMEDLOCK 0
  44:/usr/include/x86_64-linux-gnu/c++/9/bits/gthr-default.h **** # endif
  45:/usr/include/x86_64-linux-gnu/c++/9/bits/gthr-default.h **** #endif
  46:/usr/include/x86_64-linux-gnu/c++/9/bits/gthr-default.h **** 
  47:/usr/include/x86_64-linux-gnu/c++/9/bits/gthr-default.h **** typedef pthread_t __gthread_t;
  48:/usr/include/x86_64-linux-gnu/c++/9/bits/gthr-default.h **** typedef pthread_key_t __gthread_key_t;
  49:/usr/include/x86_64-linux-gnu/c++/9/bits/gthr-default.h **** typedef pthread_once_t __gthread_once_t;
  50:/usr/include/x86_64-linux-gnu/c++/9/bits/gthr-default.h **** typedef pthread_mutex_t __gthread_mutex_t;
  51:/usr/include/x86_64-linux-gnu/c++/9/bits/gthr-default.h **** typedef pthread_mutex_t __gthread_recursive_mutex_t;
  52:/usr/include/x86_64-linux-gnu/c++/9/bits/gthr-default.h **** typedef pthread_cond_t __gthread_cond_t;
  53:/usr/include/x86_64-linux-gnu/c++/9/bits/gthr-default.h **** typedef struct timespec __gthread_time_t;
  54:/usr/include/x86_64-linux-gnu/c++/9/bits/gthr-default.h **** 
  55:/usr/include/x86_64-linux-gnu/c++/9/bits/gthr-default.h **** /* POSIX like conditional variables are supported.  Please look at comments
  56:/usr/include/x86_64-linux-gnu/c++/9/bits/gthr-default.h ****    in gthr.h for details. */
  57:/usr/include/x86_64-linux-gnu/c++/9/bits/gthr-default.h **** #define __GTHREAD_HAS_COND	1
  58:/usr/include/x86_64-linux-gnu/c++/9/bits/gthr-default.h **** 
  59:/usr/include/x86_64-linux-gnu/c++/9/bits/gthr-default.h **** #define __GTHREAD_MUTEX_INIT PTHREAD_MUTEX_INITIALIZER
  60:/usr/include/x86_64-linux-gnu/c++/9/bits/gthr-default.h **** #define __GTHREAD_MUTEX_INIT_FUNCTION __gthread_mutex_init_function
  61:/usr/include/x86_64-linux-gnu/c++/9/bits/gthr-default.h **** #define __GTHREAD_ONCE_INIT PTHREAD_ONCE_INIT
  62:/usr/include/x86_64-linux-gnu/c++/9/bits/gthr-default.h **** #if defined(PTHREAD_RECURSIVE_MUTEX_INITIALIZER)
  63:/usr/include/x86_64-linux-gnu/c++/9/bits/gthr-default.h **** #define __GTHREAD_RECURSIVE_MUTEX_INIT PTHREAD_RECURSIVE_MUTEX_INITIALIZER
  64:/usr/include/x86_64-linux-gnu/c++/9/bits/gthr-default.h **** #elif defined(PTHREAD_RECURSIVE_MUTEX_INITIALIZER_NP)
  65:/usr/include/x86_64-linux-gnu/c++/9/bits/gthr-default.h **** #define __GTHREAD_RECURSIVE_MUTEX_INIT PTHREAD_RECURSIVE_MUTEX_INITIALIZER_NP
  66:/usr/include/x86_64-linux-gnu/c++/9/bits/gthr-default.h **** #else
  67:/usr/include/x86_64-linux-gnu/c++/9/bits/gthr-default.h **** #define __GTHREAD_RECURSIVE_MUTEX_INIT_FUNCTION __gthread_recursive_mutex_init_function
  68:/usr/include/x86_64-linux-gnu/c++/9/bits/gthr-default.h **** #endif
  69:/usr/include/x86_64-linux-gnu/c++/9/bits/gthr-default.h **** #define __GTHREAD_COND_INIT PTHREAD_COND_INITIALIZER
  70:/usr/include/x86_64-linux-gnu/c++/9/bits/gthr-default.h **** #define __GTHREAD_TIME_INIT {0,0}
  71:/usr/include/x86_64-linux-gnu/c++/9/bits/gthr-default.h **** 
  72:/usr/include/x86_64-linux-gnu/c++/9/bits/gthr-default.h **** #ifdef _GTHREAD_USE_MUTEX_INIT_FUNC
  73:/usr/include/x86_64-linux-gnu/c++/9/bits/gthr-default.h **** # undef __GTHREAD_MUTEX_INIT
  74:/usr/include/x86_64-linux-gnu/c++/9/bits/gthr-default.h **** #endif
  75:/usr/include/x86_64-linux-gnu/c++/9/bits/gthr-default.h **** #ifdef _GTHREAD_USE_RECURSIVE_MUTEX_INIT_FUNC
  76:/usr/include/x86_64-linux-gnu/c++/9/bits/gthr-default.h **** # undef __GTHREAD_RECURSIVE_MUTEX_INIT
  77:/usr/include/x86_64-linux-gnu/c++/9/bits/gthr-default.h **** # undef __GTHREAD_RECURSIVE_MUTEX_INIT_FUNCTION
  78:/usr/include/x86_64-linux-gnu/c++/9/bits/gthr-default.h **** # define __GTHREAD_RECURSIVE_MUTEX_INIT_FUNCTION __gthread_recursive_mutex_init_function
  79:/usr/include/x86_64-linux-gnu/c++/9/bits/gthr-default.h **** #endif
  80:/usr/include/x86_64-linux-gnu/c++/9/bits/gthr-default.h **** #ifdef _GTHREAD_USE_COND_INIT_FUNC
  81:/usr/include/x86_64-linux-gnu/c++/9/bits/gthr-default.h **** # undef __GTHREAD_COND_INIT
  82:/usr/include/x86_64-linux-gnu/c++/9/bits/gthr-default.h **** # define __GTHREAD_COND_INIT_FUNCTION __gthread_cond_init_function
  83:/usr/include/x86_64-linux-gnu/c++/9/bits/gthr-default.h **** #endif
  84:/usr/include/x86_64-linux-gnu/c++/9/bits/gthr-default.h **** 
  85:/usr/include/x86_64-linux-gnu/c++/9/bits/gthr-default.h **** #if __GXX_WEAK__ && _GLIBCXX_GTHREAD_USE_WEAK
  86:/usr/include/x86_64-linux-gnu/c++/9/bits/gthr-default.h **** # ifndef __gthrw_pragma
  87:/usr/include/x86_64-linux-gnu/c++/9/bits/gthr-default.h **** #  define __gthrw_pragma(pragma)
  88:/usr/include/x86_64-linux-gnu/c++/9/bits/gthr-default.h **** # endif
  89:/usr/include/x86_64-linux-gnu/c++/9/bits/gthr-default.h **** # define __gthrw2(name,name2,type) \
  90:/usr/include/x86_64-linux-gnu/c++/9/bits/gthr-default.h ****   static __typeof(type) name \
  91:/usr/include/x86_64-linux-gnu/c++/9/bits/gthr-default.h ****     __attribute__ ((__weakref__(#name2), __copy__ (type))); \
  92:/usr/include/x86_64-linux-gnu/c++/9/bits/gthr-default.h ****   __gthrw_pragma(weak type)
  93:/usr/include/x86_64-linux-gnu/c++/9/bits/gthr-default.h **** # define __gthrw_(name) __gthrw_ ## name
  94:/usr/include/x86_64-linux-gnu/c++/9/bits/gthr-default.h **** #else
  95:/usr/include/x86_64-linux-gnu/c++/9/bits/gthr-default.h **** # define __gthrw2(name,name2,type)
  96:/usr/include/x86_64-linux-gnu/c++/9/bits/gthr-default.h **** # define __gthrw_(name) name
  97:/usr/include/x86_64-linux-gnu/c++/9/bits/gthr-default.h **** #endif
  98:/usr/include/x86_64-linux-gnu/c++/9/bits/gthr-default.h **** 
  99:/usr/include/x86_64-linux-gnu/c++/9/bits/gthr-default.h **** /* Typically, __gthrw_foo is a weak reference to symbol foo.  */
 100:/usr/include/x86_64-linux-gnu/c++/9/bits/gthr-default.h **** #define __gthrw(name) __gthrw2(__gthrw_ ## name,name,name)
 101:/usr/include/x86_64-linux-gnu/c++/9/bits/gthr-default.h **** 
 102:/usr/include/x86_64-linux-gnu/c++/9/bits/gthr-default.h **** __gthrw(pthread_once)
 103:/usr/include/x86_64-linux-gnu/c++/9/bits/gthr-default.h **** __gthrw(pthread_getspecific)
 104:/usr/include/x86_64-linux-gnu/c++/9/bits/gthr-default.h **** __gthrw(pthread_setspecific)
 105:/usr/include/x86_64-linux-gnu/c++/9/bits/gthr-default.h **** 
 106:/usr/include/x86_64-linux-gnu/c++/9/bits/gthr-default.h **** __gthrw(pthread_create)
 107:/usr/include/x86_64-linux-gnu/c++/9/bits/gthr-default.h **** __gthrw(pthread_join)
 108:/usr/include/x86_64-linux-gnu/c++/9/bits/gthr-default.h **** __gthrw(pthread_equal)
 109:/usr/include/x86_64-linux-gnu/c++/9/bits/gthr-default.h **** __gthrw(pthread_self)
 110:/usr/include/x86_64-linux-gnu/c++/9/bits/gthr-default.h **** __gthrw(pthread_detach)
 111:/usr/include/x86_64-linux-gnu/c++/9/bits/gthr-default.h **** #ifndef __BIONIC__
 112:/usr/include/x86_64-linux-gnu/c++/9/bits/gthr-default.h **** __gthrw(pthread_cancel)
 113:/usr/include/x86_64-linux-gnu/c++/9/bits/gthr-default.h **** #endif
 114:/usr/include/x86_64-linux-gnu/c++/9/bits/gthr-default.h **** __gthrw(sched_yield)
 115:/usr/include/x86_64-linux-gnu/c++/9/bits/gthr-default.h **** 
 116:/usr/include/x86_64-linux-gnu/c++/9/bits/gthr-default.h **** __gthrw(pthread_mutex_lock)
 117:/usr/include/x86_64-linux-gnu/c++/9/bits/gthr-default.h **** __gthrw(pthread_mutex_trylock)
 118:/usr/include/x86_64-linux-gnu/c++/9/bits/gthr-default.h **** #if _GTHREAD_USE_MUTEX_TIMEDLOCK
 119:/usr/include/x86_64-linux-gnu/c++/9/bits/gthr-default.h **** __gthrw(pthread_mutex_timedlock)
 120:/usr/include/x86_64-linux-gnu/c++/9/bits/gthr-default.h **** #endif
 121:/usr/include/x86_64-linux-gnu/c++/9/bits/gthr-default.h **** __gthrw(pthread_mutex_unlock)
 122:/usr/include/x86_64-linux-gnu/c++/9/bits/gthr-default.h **** __gthrw(pthread_mutex_init)
 123:/usr/include/x86_64-linux-gnu/c++/9/bits/gthr-default.h **** __gthrw(pthread_mutex_destroy)
 124:/usr/include/x86_64-linux-gnu/c++/9/bits/gthr-default.h **** 
 125:/usr/include/x86_64-linux-gnu/c++/9/bits/gthr-default.h **** __gthrw(pthread_cond_init)
 126:/usr/include/x86_64-linux-gnu/c++/9/bits/gthr-default.h **** __gthrw(pthread_cond_broadcast)
 127:/usr/include/x86_64-linux-gnu/c++/9/bits/gthr-default.h **** __gthrw(pthread_cond_signal)
 128:/usr/include/x86_64-linux-gnu/c++/9/bits/gthr-default.h **** __gthrw(pthread_cond_wait)
 129:/usr/include/x86_64-linux-gnu/c++/9/bits/gthr-default.h **** __gthrw(pthread_cond_timedwait)
 130:/usr/include/x86_64-linux-gnu/c++/9/bits/gthr-default.h **** __gthrw(pthread_cond_destroy)
 131:/usr/include/x86_64-linux-gnu/c++/9/bits/gthr-default.h **** 
 132:/usr/include/x86_64-linux-gnu/c++/9/bits/gthr-default.h **** __gthrw(pthread_key_create)
 133:/usr/include/x86_64-linux-gnu/c++/9/bits/gthr-default.h **** __gthrw(pthread_key_delete)
 134:/usr/include/x86_64-linux-gnu/c++/9/bits/gthr-default.h **** __gthrw(pthread_mutexattr_init)
 135:/usr/include/x86_64-linux-gnu/c++/9/bits/gthr-default.h **** __gthrw(pthread_mutexattr_settype)
 136:/usr/include/x86_64-linux-gnu/c++/9/bits/gthr-default.h **** __gthrw(pthread_mutexattr_destroy)
 137:/usr/include/x86_64-linux-gnu/c++/9/bits/gthr-default.h **** 
 138:/usr/include/x86_64-linux-gnu/c++/9/bits/gthr-default.h **** 
 139:/usr/include/x86_64-linux-gnu/c++/9/bits/gthr-default.h **** #if defined(_LIBOBJC) || defined(_LIBOBJC_WEAK)
 140:/usr/include/x86_64-linux-gnu/c++/9/bits/gthr-default.h **** /* Objective-C.  */
 141:/usr/include/x86_64-linux-gnu/c++/9/bits/gthr-default.h **** __gthrw(pthread_exit)
 142:/usr/include/x86_64-linux-gnu/c++/9/bits/gthr-default.h **** #ifdef _POSIX_PRIORITY_SCHEDULING
 143:/usr/include/x86_64-linux-gnu/c++/9/bits/gthr-default.h **** #ifdef _POSIX_THREAD_PRIORITY_SCHEDULING
 144:/usr/include/x86_64-linux-gnu/c++/9/bits/gthr-default.h **** __gthrw(sched_get_priority_max)
 145:/usr/include/x86_64-linux-gnu/c++/9/bits/gthr-default.h **** __gthrw(sched_get_priority_min)
 146:/usr/include/x86_64-linux-gnu/c++/9/bits/gthr-default.h **** #endif /* _POSIX_THREAD_PRIORITY_SCHEDULING */
 147:/usr/include/x86_64-linux-gnu/c++/9/bits/gthr-default.h **** #endif /* _POSIX_PRIORITY_SCHEDULING */
 148:/usr/include/x86_64-linux-gnu/c++/9/bits/gthr-default.h **** __gthrw(pthread_attr_destroy)
 149:/usr/include/x86_64-linux-gnu/c++/9/bits/gthr-default.h **** __gthrw(pthread_attr_init)
 150:/usr/include/x86_64-linux-gnu/c++/9/bits/gthr-default.h **** __gthrw(pthread_attr_setdetachstate)
 151:/usr/include/x86_64-linux-gnu/c++/9/bits/gthr-default.h **** #ifdef _POSIX_THREAD_PRIORITY_SCHEDULING
 152:/usr/include/x86_64-linux-gnu/c++/9/bits/gthr-default.h **** __gthrw(pthread_getschedparam)
 153:/usr/include/x86_64-linux-gnu/c++/9/bits/gthr-default.h **** __gthrw(pthread_setschedparam)
 154:/usr/include/x86_64-linux-gnu/c++/9/bits/gthr-default.h **** #endif /* _POSIX_THREAD_PRIORITY_SCHEDULING */
 155:/usr/include/x86_64-linux-gnu/c++/9/bits/gthr-default.h **** #endif /* _LIBOBJC || _LIBOBJC_WEAK */
 156:/usr/include/x86_64-linux-gnu/c++/9/bits/gthr-default.h **** 
 157:/usr/include/x86_64-linux-gnu/c++/9/bits/gthr-default.h **** #if __GXX_WEAK__ && _GLIBCXX_GTHREAD_USE_WEAK
 158:/usr/include/x86_64-linux-gnu/c++/9/bits/gthr-default.h **** 
 159:/usr/include/x86_64-linux-gnu/c++/9/bits/gthr-default.h **** /* On Solaris 2.6 up to 9, the libc exposes a POSIX threads interface even if
 160:/usr/include/x86_64-linux-gnu/c++/9/bits/gthr-default.h ****    -pthreads is not specified.  The functions are dummies and most return an
 161:/usr/include/x86_64-linux-gnu/c++/9/bits/gthr-default.h ****    error value.  However pthread_once returns 0 without invoking the routine
 162:/usr/include/x86_64-linux-gnu/c++/9/bits/gthr-default.h ****    it is passed so we cannot pretend that the interface is active if -pthreads
 163:/usr/include/x86_64-linux-gnu/c++/9/bits/gthr-default.h ****    is not specified.  On Solaris 2.5.1, the interface is not exposed at all so
 164:/usr/include/x86_64-linux-gnu/c++/9/bits/gthr-default.h ****    we need to play the usual game with weak symbols.  On Solaris 10 and up, a
 165:/usr/include/x86_64-linux-gnu/c++/9/bits/gthr-default.h ****    working interface is always exposed.  On FreeBSD 6 and later, libc also
 166:/usr/include/x86_64-linux-gnu/c++/9/bits/gthr-default.h ****    exposes a dummy POSIX threads interface, similar to what Solaris 2.6 up
 167:/usr/include/x86_64-linux-gnu/c++/9/bits/gthr-default.h ****    to 9 does.  FreeBSD >= 700014 even provides a pthread_cancel stub in libc,
 168:/usr/include/x86_64-linux-gnu/c++/9/bits/gthr-default.h ****    which means the alternate __gthread_active_p below cannot be used there.  */
 169:/usr/include/x86_64-linux-gnu/c++/9/bits/gthr-default.h **** 
 170:/usr/include/x86_64-linux-gnu/c++/9/bits/gthr-default.h **** #if defined(__FreeBSD__) || (defined(__sun) && defined(__svr4__))
 171:/usr/include/x86_64-linux-gnu/c++/9/bits/gthr-default.h **** 
 172:/usr/include/x86_64-linux-gnu/c++/9/bits/gthr-default.h **** static volatile int __gthread_active = -1;
 173:/usr/include/x86_64-linux-gnu/c++/9/bits/gthr-default.h **** 
 174:/usr/include/x86_64-linux-gnu/c++/9/bits/gthr-default.h **** static void
 175:/usr/include/x86_64-linux-gnu/c++/9/bits/gthr-default.h **** __gthread_trigger (void)
 176:/usr/include/x86_64-linux-gnu/c++/9/bits/gthr-default.h **** {
 177:/usr/include/x86_64-linux-gnu/c++/9/bits/gthr-default.h ****   __gthread_active = 1;
 178:/usr/include/x86_64-linux-gnu/c++/9/bits/gthr-default.h **** }
 179:/usr/include/x86_64-linux-gnu/c++/9/bits/gthr-default.h **** 
 180:/usr/include/x86_64-linux-gnu/c++/9/bits/gthr-default.h **** static inline int
 181:/usr/include/x86_64-linux-gnu/c++/9/bits/gthr-default.h **** __gthread_active_p (void)
 182:/usr/include/x86_64-linux-gnu/c++/9/bits/gthr-default.h **** {
 183:/usr/include/x86_64-linux-gnu/c++/9/bits/gthr-default.h ****   static pthread_mutex_t __gthread_active_mutex = PTHREAD_MUTEX_INITIALIZER;
 184:/usr/include/x86_64-linux-gnu/c++/9/bits/gthr-default.h ****   static pthread_once_t __gthread_active_once = PTHREAD_ONCE_INIT;
 185:/usr/include/x86_64-linux-gnu/c++/9/bits/gthr-default.h **** 
 186:/usr/include/x86_64-linux-gnu/c++/9/bits/gthr-default.h ****   /* Avoid reading __gthread_active twice on the main code path.  */
 187:/usr/include/x86_64-linux-gnu/c++/9/bits/gthr-default.h ****   int __gthread_active_latest_value = __gthread_active;
 188:/usr/include/x86_64-linux-gnu/c++/9/bits/gthr-default.h **** 
 189:/usr/include/x86_64-linux-gnu/c++/9/bits/gthr-default.h ****   /* This test is not protected to avoid taking a lock on the main code
 190:/usr/include/x86_64-linux-gnu/c++/9/bits/gthr-default.h ****      path so every update of __gthread_active in a threaded program must
 191:/usr/include/x86_64-linux-gnu/c++/9/bits/gthr-default.h ****      be atomic with regard to the result of the test.  */
 192:/usr/include/x86_64-linux-gnu/c++/9/bits/gthr-default.h ****   if (__builtin_expect (__gthread_active_latest_value < 0, 0))
 193:/usr/include/x86_64-linux-gnu/c++/9/bits/gthr-default.h ****     {
 194:/usr/include/x86_64-linux-gnu/c++/9/bits/gthr-default.h ****       if (__gthrw_(pthread_once))
 195:/usr/include/x86_64-linux-gnu/c++/9/bits/gthr-default.h **** 	{
 196:/usr/include/x86_64-linux-gnu/c++/9/bits/gthr-default.h **** 	  /* If this really is a threaded program, then we must ensure that
 197:/usr/include/x86_64-linux-gnu/c++/9/bits/gthr-default.h **** 	     __gthread_active has been set to 1 before exiting this block.  */
 198:/usr/include/x86_64-linux-gnu/c++/9/bits/gthr-default.h **** 	  __gthrw_(pthread_mutex_lock) (&__gthread_active_mutex);
 199:/usr/include/x86_64-linux-gnu/c++/9/bits/gthr-default.h **** 	  __gthrw_(pthread_once) (&__gthread_active_once, __gthread_trigger);
 200:/usr/include/x86_64-linux-gnu/c++/9/bits/gthr-default.h **** 	  __gthrw_(pthread_mutex_unlock) (&__gthread_active_mutex);
 201:/usr/include/x86_64-linux-gnu/c++/9/bits/gthr-default.h **** 	}
 202:/usr/include/x86_64-linux-gnu/c++/9/bits/gthr-default.h **** 
 203:/usr/include/x86_64-linux-gnu/c++/9/bits/gthr-default.h ****       /* Make sure we'll never enter this block again.  */
 204:/usr/include/x86_64-linux-gnu/c++/9/bits/gthr-default.h ****       if (__gthread_active < 0)
 205:/usr/include/x86_64-linux-gnu/c++/9/bits/gthr-default.h **** 	__gthread_active = 0;
 206:/usr/include/x86_64-linux-gnu/c++/9/bits/gthr-default.h **** 
 207:/usr/include/x86_64-linux-gnu/c++/9/bits/gthr-default.h ****       __gthread_active_latest_value = __gthread_active;
 208:/usr/include/x86_64-linux-gnu/c++/9/bits/gthr-default.h ****     }
 209:/usr/include/x86_64-linux-gnu/c++/9/bits/gthr-default.h **** 
 210:/usr/include/x86_64-linux-gnu/c++/9/bits/gthr-default.h ****   return __gthread_active_latest_value != 0;
 211:/usr/include/x86_64-linux-gnu/c++/9/bits/gthr-default.h **** }
 212:/usr/include/x86_64-linux-gnu/c++/9/bits/gthr-default.h **** 
 213:/usr/include/x86_64-linux-gnu/c++/9/bits/gthr-default.h **** #else /* neither FreeBSD nor Solaris */
 214:/usr/include/x86_64-linux-gnu/c++/9/bits/gthr-default.h **** 
 215:/usr/include/x86_64-linux-gnu/c++/9/bits/gthr-default.h **** /* For a program to be multi-threaded the only thing that it certainly must
 216:/usr/include/x86_64-linux-gnu/c++/9/bits/gthr-default.h ****    be using is pthread_create.  However, there may be other libraries that
 217:/usr/include/x86_64-linux-gnu/c++/9/bits/gthr-default.h ****    intercept pthread_create with their own definitions to wrap pthreads
 218:/usr/include/x86_64-linux-gnu/c++/9/bits/gthr-default.h ****    functionality for some purpose.  In those cases, pthread_create being
 219:/usr/include/x86_64-linux-gnu/c++/9/bits/gthr-default.h ****    defined might not necessarily mean that libpthread is actually linked
 220:/usr/include/x86_64-linux-gnu/c++/9/bits/gthr-default.h ****    in.
 221:/usr/include/x86_64-linux-gnu/c++/9/bits/gthr-default.h **** 
 222:/usr/include/x86_64-linux-gnu/c++/9/bits/gthr-default.h ****    For the GNU C library, we can use a known internal name.  This is always
 223:/usr/include/x86_64-linux-gnu/c++/9/bits/gthr-default.h ****    available in the ABI, but no other library would define it.  That is
 224:/usr/include/x86_64-linux-gnu/c++/9/bits/gthr-default.h ****    ideal, since any public pthread function might be intercepted just as
 225:/usr/include/x86_64-linux-gnu/c++/9/bits/gthr-default.h ****    pthread_create might be.  __pthread_key_create is an "internal"
 226:/usr/include/x86_64-linux-gnu/c++/9/bits/gthr-default.h ****    implementation symbol, but it is part of the public exported ABI.  Also,
 227:/usr/include/x86_64-linux-gnu/c++/9/bits/gthr-default.h ****    it's among the symbols that the static libpthread.a always links in
 228:/usr/include/x86_64-linux-gnu/c++/9/bits/gthr-default.h ****    whenever pthread_create is used, so there is no danger of a false
 229:/usr/include/x86_64-linux-gnu/c++/9/bits/gthr-default.h ****    negative result in any statically-linked, multi-threaded program.
 230:/usr/include/x86_64-linux-gnu/c++/9/bits/gthr-default.h **** 
 231:/usr/include/x86_64-linux-gnu/c++/9/bits/gthr-default.h ****    For others, we choose pthread_cancel as a function that seems unlikely
 232:/usr/include/x86_64-linux-gnu/c++/9/bits/gthr-default.h ****    to be redefined by an interceptor library.  The bionic (Android) C
 233:/usr/include/x86_64-linux-gnu/c++/9/bits/gthr-default.h ****    library does not provide pthread_cancel, so we do use pthread_create
 234:/usr/include/x86_64-linux-gnu/c++/9/bits/gthr-default.h ****    there (and interceptor libraries lose).  */
 235:/usr/include/x86_64-linux-gnu/c++/9/bits/gthr-default.h **** 
 236:/usr/include/x86_64-linux-gnu/c++/9/bits/gthr-default.h **** #ifdef __GLIBC__
 237:/usr/include/x86_64-linux-gnu/c++/9/bits/gthr-default.h **** __gthrw2(__gthrw_(__pthread_key_create),
 238:/usr/include/x86_64-linux-gnu/c++/9/bits/gthr-default.h **** 	 __pthread_key_create,
 239:/usr/include/x86_64-linux-gnu/c++/9/bits/gthr-default.h **** 	 pthread_key_create)
 240:/usr/include/x86_64-linux-gnu/c++/9/bits/gthr-default.h **** # define GTHR_ACTIVE_PROXY	__gthrw_(__pthread_key_create)
 241:/usr/include/x86_64-linux-gnu/c++/9/bits/gthr-default.h **** #elif defined (__BIONIC__)
 242:/usr/include/x86_64-linux-gnu/c++/9/bits/gthr-default.h **** # define GTHR_ACTIVE_PROXY	__gthrw_(pthread_create)
 243:/usr/include/x86_64-linux-gnu/c++/9/bits/gthr-default.h **** #else
 244:/usr/include/x86_64-linux-gnu/c++/9/bits/gthr-default.h **** # define GTHR_ACTIVE_PROXY	__gthrw_(pthread_cancel)
 245:/usr/include/x86_64-linux-gnu/c++/9/bits/gthr-default.h **** #endif
 246:/usr/include/x86_64-linux-gnu/c++/9/bits/gthr-default.h **** 
 247:/usr/include/x86_64-linux-gnu/c++/9/bits/gthr-default.h **** static inline int
 248:/usr/include/x86_64-linux-gnu/c++/9/bits/gthr-default.h **** __gthread_active_p (void)
 249:/usr/include/x86_64-linux-gnu/c++/9/bits/gthr-default.h **** {
 182              		.loc 3 249 1
 183              		.cfi_startproc
 184 0000 55       		pushq	%rbp	#
 185              		.cfi_def_cfa_offset 16
 186              		.cfi_offset 6, -16
 187 0001 4889E5   		movq	%rsp, %rbp	#,
 188              		.cfi_def_cfa_register 6
 189              	# /usr/include/x86_64-linux-gnu/c++/9/bits/gthr-default.h:252:   return __gthread_active_ptr != 0;
 250:/usr/include/x86_64-linux-gnu/c++/9/bits/gthr-default.h ****   static void *const __gthread_active_ptr
 251:/usr/include/x86_64-linux-gnu/c++/9/bits/gthr-default.h ****     = __extension__ (void *) &GTHR_ACTIVE_PROXY;
 252:/usr/include/x86_64-linux-gnu/c++/9/bits/gthr-default.h ****   return __gthread_active_ptr != 0;
 190              		.loc 3 252 31
 191 0004 BA010000 		movl	$1, %edx	#, _1
 191      00
 192 0009 488B0500 		movq	_ZL28__gthrw___pthread_key_createPjPFvPvE@GOTPCREL(%rip), %rax	#, tmp86
 192      000000
 193 0010 4885C0   		testq	%rax, %rax	# tmp85
 194 0013 7505     		jne	.L10	#,
 195 0015 BA000000 		movl	$0, %edx	#, _1
 195      00
 196              	.L10:
 197              	# /usr/include/x86_64-linux-gnu/c++/9/bits/gthr-default.h:252:   return __gthread_active_ptr != 0;
 198              		.loc 3 252 34
 199 001a 0FB6C2   		movzbl	%dl, %eax	# _1, _2
 200              	# /usr/include/x86_64-linux-gnu/c++/9/bits/gthr-default.h:253: }
 253:/usr/include/x86_64-linux-gnu/c++/9/bits/gthr-default.h **** }
 201              		.loc 3 253 1
 202 001d 5D       		popq	%rbp	#
 203              		.cfi_def_cfa 7, 8
 204 001e C3       		ret	
 205              		.cfi_endproc
 206              	.LFE460:
 208              		.section	.text._ZN9__gnu_cxxL18__exchange_and_addEPVii,"axG",@progbits,_ZNSt16_Sp_counted_baseILN9
 210              	_ZN9__gnu_cxxL18__exchange_and_addEPVii:
 211              	.LFB489:
 212              		.file 4 "/usr/include/c++/9/ext/atomicity.h"
   1:/usr/include/c++/9/ext/atomicity.h **** // Support for atomic operations -*- C++ -*-
   2:/usr/include/c++/9/ext/atomicity.h **** 
   3:/usr/include/c++/9/ext/atomicity.h **** // Copyright (C) 2004-2019 Free Software Foundation, Inc.
   4:/usr/include/c++/9/ext/atomicity.h **** //
   5:/usr/include/c++/9/ext/atomicity.h **** // This file is part of the GNU ISO C++ Library.  This library is free
   6:/usr/include/c++/9/ext/atomicity.h **** // software; you can redistribute it and/or modify it under the
   7:/usr/include/c++/9/ext/atomicity.h **** // terms of the GNU General Public License as published by the
   8:/usr/include/c++/9/ext/atomicity.h **** // Free Software Foundation; either version 3, or (at your option)
   9:/usr/include/c++/9/ext/atomicity.h **** // any later version.
  10:/usr/include/c++/9/ext/atomicity.h **** 
  11:/usr/include/c++/9/ext/atomicity.h **** // This library is distributed in the hope that it will be useful,
  12:/usr/include/c++/9/ext/atomicity.h **** // but WITHOUT ANY WARRANTY; without even the implied warranty of
  13:/usr/include/c++/9/ext/atomicity.h **** // MERCHANTABILITY or FITNESS FOR A PARTICULAR PURPOSE.  See the
  14:/usr/include/c++/9/ext/atomicity.h **** // GNU General Public License for more details.
  15:/usr/include/c++/9/ext/atomicity.h **** 
  16:/usr/include/c++/9/ext/atomicity.h **** // Under Section 7 of GPL version 3, you are granted additional
  17:/usr/include/c++/9/ext/atomicity.h **** // permissions described in the GCC Runtime Library Exception, version
  18:/usr/include/c++/9/ext/atomicity.h **** // 3.1, as published by the Free Software Foundation.
  19:/usr/include/c++/9/ext/atomicity.h **** 
  20:/usr/include/c++/9/ext/atomicity.h **** // You should have received a copy of the GNU General Public License and
  21:/usr/include/c++/9/ext/atomicity.h **** // a copy of the GCC Runtime Library Exception along with this program;
  22:/usr/include/c++/9/ext/atomicity.h **** // see the files COPYING3 and COPYING.RUNTIME respectively.  If not, see
  23:/usr/include/c++/9/ext/atomicity.h **** // <http://www.gnu.org/licenses/>.
  24:/usr/include/c++/9/ext/atomicity.h **** 
  25:/usr/include/c++/9/ext/atomicity.h **** /** @file ext/atomicity.h
  26:/usr/include/c++/9/ext/atomicity.h ****  *  This file is a GNU extension to the Standard C++ Library.
  27:/usr/include/c++/9/ext/atomicity.h ****  */
  28:/usr/include/c++/9/ext/atomicity.h **** 
  29:/usr/include/c++/9/ext/atomicity.h **** #ifndef _GLIBCXX_ATOMICITY_H
  30:/usr/include/c++/9/ext/atomicity.h **** #define _GLIBCXX_ATOMICITY_H	1
  31:/usr/include/c++/9/ext/atomicity.h **** 
  32:/usr/include/c++/9/ext/atomicity.h **** #pragma GCC system_header
  33:/usr/include/c++/9/ext/atomicity.h **** 
  34:/usr/include/c++/9/ext/atomicity.h **** #include <bits/c++config.h>
  35:/usr/include/c++/9/ext/atomicity.h **** #include <bits/gthr.h>
  36:/usr/include/c++/9/ext/atomicity.h **** #include <bits/atomic_word.h>
  37:/usr/include/c++/9/ext/atomicity.h **** 
  38:/usr/include/c++/9/ext/atomicity.h **** namespace __gnu_cxx _GLIBCXX_VISIBILITY(default)
  39:/usr/include/c++/9/ext/atomicity.h **** {
  40:/usr/include/c++/9/ext/atomicity.h **** _GLIBCXX_BEGIN_NAMESPACE_VERSION
  41:/usr/include/c++/9/ext/atomicity.h **** 
  42:/usr/include/c++/9/ext/atomicity.h ****   // Functions for portable atomic access.
  43:/usr/include/c++/9/ext/atomicity.h ****   // To abstract locking primitives across all thread policies, use:
  44:/usr/include/c++/9/ext/atomicity.h ****   // __exchange_and_add_dispatch
  45:/usr/include/c++/9/ext/atomicity.h ****   // __atomic_add_dispatch
  46:/usr/include/c++/9/ext/atomicity.h **** #ifdef _GLIBCXX_ATOMIC_BUILTINS
  47:/usr/include/c++/9/ext/atomicity.h ****   static inline _Atomic_word 
  48:/usr/include/c++/9/ext/atomicity.h ****   __exchange_and_add(volatile _Atomic_word* __mem, int __val)
  49:/usr/include/c++/9/ext/atomicity.h ****   { return __atomic_fetch_add(__mem, __val, __ATOMIC_ACQ_REL); }
 213              		.loc 4 49 3
 214              		.cfi_startproc
 215 0000 55       		pushq	%rbp	#
 216              		.cfi_def_cfa_offset 16
 217              		.cfi_offset 6, -16
 218 0001 4889E5   		movq	%rsp, %rbp	#,
 219              		.cfi_def_cfa_register 6
 220 0004 48897DF8 		movq	%rdi, -8(%rbp)	# __mem, __mem
 221 0008 8975F4   		movl	%esi, -12(%rbp)	# __val, __val
 222              	# /usr/include/c++/9/ext/atomicity.h:49:   { return __atomic_fetch_add(__mem, __val, __ATOMIC_ACQ_R
 223              		.loc 4 49 61
 224 000b 8B55F4   		movl	-12(%rbp), %edx	# __val, __val.9_1
 225 000e 488B45F8 		movq	-8(%rbp), %rax	# __mem, tmp86
 226 0012 F00FC110 		lock xaddl	%edx, (%rax)	#, _2,
 227 0016 89D0     		movl	%edx, %eax	# _2, _7
 228              	# /usr/include/c++/9/ext/atomicity.h:49:   { return __atomic_fetch_add(__mem, __val, __ATOMIC_ACQ_R
 229              		.loc 4 49 64
 230 0018 5D       		popq	%rbp	#
 231              		.cfi_def_cfa 7, 8
 232 0019 C3       		ret	
 233              		.cfi_endproc
 234              	.LFE489:
 236              		.section	.text._ZN9__gnu_cxxL12__atomic_addEPVii,"axG",@progbits,_ZNSt16_Sp_counted_baseILN9__gnu_
 238              	_ZN9__gnu_cxxL12__atomic_addEPVii:
 239              	.LFB490:
  50:/usr/include/c++/9/ext/atomicity.h **** 
  51:/usr/include/c++/9/ext/atomicity.h ****   static inline void
  52:/usr/include/c++/9/ext/atomicity.h ****   __atomic_add(volatile _Atomic_word* __mem, int __val)
  53:/usr/include/c++/9/ext/atomicity.h ****   { __atomic_fetch_add(__mem, __val, __ATOMIC_ACQ_REL); }
 240              		.loc 4 53 3
 241              		.cfi_startproc
 242 0000 55       		pushq	%rbp	#
 243              		.cfi_def_cfa_offset 16
 244              		.cfi_offset 6, -16
 245 0001 4889E5   		movq	%rsp, %rbp	#,
 246              		.cfi_def_cfa_register 6
 247 0004 48897DF8 		movq	%rdi, -8(%rbp)	# __mem, __mem
 248 0008 8975F4   		movl	%esi, -12(%rbp)	# __val, __val
 249              	# /usr/include/c++/9/ext/atomicity.h:53:   { __atomic_fetch_add(__mem, __val, __ATOMIC_ACQ_REL); }
 250              		.loc 4 53 54
 251 000b 8B55F4   		movl	-12(%rbp), %edx	# __val, __val.5_1
 252 000e 488B45F8 		movq	-8(%rbp), %rax	# __mem, tmp83
 253 0012 F00110   		lock addl	%edx, (%rax)	#, __val.5_1,
 254              	# /usr/include/c++/9/ext/atomicity.h:53:   { __atomic_fetch_add(__mem, __val, __ATOMIC_ACQ_REL); }
 255              		.loc 4 53 57
 256 0015 90       		nop	
 257 0016 5D       		popq	%rbp	#
 258              		.cfi_def_cfa 7, 8
 259 0017 C3       		ret	
 260              		.cfi_endproc
 261              	.LFE490:
 263              		.section	.text._ZN9__gnu_cxxL25__exchange_and_add_singleEPii,"axG",@progbits,_ZNSt16_Sp_counted_ba
 265              	_ZN9__gnu_cxxL25__exchange_and_add_singleEPii:
 266              	.LFB491:
  54:/usr/include/c++/9/ext/atomicity.h **** #else
  55:/usr/include/c++/9/ext/atomicity.h ****   _Atomic_word
  56:/usr/include/c++/9/ext/atomicity.h ****   __attribute__ ((__unused__))
  57:/usr/include/c++/9/ext/atomicity.h ****   __exchange_and_add(volatile _Atomic_word*, int) throw ();
  58:/usr/include/c++/9/ext/atomicity.h **** 
  59:/usr/include/c++/9/ext/atomicity.h ****   void
  60:/usr/include/c++/9/ext/atomicity.h ****   __attribute__ ((__unused__))
  61:/usr/include/c++/9/ext/atomicity.h ****   __atomic_add(volatile _Atomic_word*, int) throw ();
  62:/usr/include/c++/9/ext/atomicity.h **** #endif
  63:/usr/include/c++/9/ext/atomicity.h **** 
  64:/usr/include/c++/9/ext/atomicity.h ****   static inline _Atomic_word
  65:/usr/include/c++/9/ext/atomicity.h ****   __exchange_and_add_single(_Atomic_word* __mem, int __val)
  66:/usr/include/c++/9/ext/atomicity.h ****   {
 267              		.loc 4 66 3
 268              		.cfi_startproc
 269 0000 55       		pushq	%rbp	#
 270              		.cfi_def_cfa_offset 16
 271              		.cfi_offset 6, -16
 272 0001 4889E5   		movq	%rsp, %rbp	#,
 273              		.cfi_def_cfa_register 6
 274 0004 48897DE8 		movq	%rdi, -24(%rbp)	# __mem, __mem
 275 0008 8975E4   		movl	%esi, -28(%rbp)	# __val, __val
 276              	# /usr/include/c++/9/ext/atomicity.h:67:     _Atomic_word __result = *__mem;
  67:/usr/include/c++/9/ext/atomicity.h ****     _Atomic_word __result = *__mem;
 277              		.loc 4 67 18
 278 000b 488B45E8 		movq	-24(%rbp), %rax	# __mem, tmp86
 279 000f 8B00     		movl	(%rax), %eax	# *__mem_4(D), tmp87
 280 0011 8945FC   		movl	%eax, -4(%rbp)	# tmp87, __result
 281              	# /usr/include/c++/9/ext/atomicity.h:68:     *__mem += __val;
  68:/usr/include/c++/9/ext/atomicity.h ****     *__mem += __val;
 282              		.loc 4 68 12
 283 0014 488B45E8 		movq	-24(%rbp), %rax	# __mem, tmp88
 284 0018 8B10     		movl	(%rax), %edx	# *__mem_4(D), _1
 285 001a 8B45E4   		movl	-28(%rbp), %eax	# __val, tmp89
 286 001d 01C2     		addl	%eax, %edx	# tmp89, _2
 287 001f 488B45E8 		movq	-24(%rbp), %rax	# __mem, tmp90
 288 0023 8910     		movl	%edx, (%rax)	# _2, *__mem_4(D)
 289              	# /usr/include/c++/9/ext/atomicity.h:69:     return __result;
  69:/usr/include/c++/9/ext/atomicity.h ****     return __result;
 290              		.loc 4 69 12
 291 0025 8B45FC   		movl	-4(%rbp), %eax	# __result, _8
 292              	# /usr/include/c++/9/ext/atomicity.h:70:   }
  70:/usr/include/c++/9/ext/atomicity.h ****   }
 293              		.loc 4 70 3
 294 0028 5D       		popq	%rbp	#
 295              		.cfi_def_cfa 7, 8
 296 0029 C3       		ret	
 297              		.cfi_endproc
 298              	.LFE491:
 300              		.section	.text._ZN9__gnu_cxxL19__atomic_add_singleEPii,"axG",@progbits,_ZNSt16_Sp_counted_baseILN9
 302              	_ZN9__gnu_cxxL19__atomic_add_singleEPii:
 303              	.LFB492:
  71:/usr/include/c++/9/ext/atomicity.h **** 
  72:/usr/include/c++/9/ext/atomicity.h ****   static inline void
  73:/usr/include/c++/9/ext/atomicity.h ****   __atomic_add_single(_Atomic_word* __mem, int __val)
  74:/usr/include/c++/9/ext/atomicity.h ****   { *__mem += __val; }
 304              		.loc 4 74 3
 305              		.cfi_startproc
 306 0000 55       		pushq	%rbp	#
 307              		.cfi_def_cfa_offset 16
 308              		.cfi_offset 6, -16
 309 0001 4889E5   		movq	%rsp, %rbp	#,
 310              		.cfi_def_cfa_register 6
 311 0004 48897DF8 		movq	%rdi, -8(%rbp)	# __mem, __mem
 312 0008 8975F4   		movl	%esi, -12(%rbp)	# __val, __val
 313              	# /usr/include/c++/9/ext/atomicity.h:74:   { *__mem += __val; }
 314              		.loc 4 74 12
 315 000b 488B45F8 		movq	-8(%rbp), %rax	# __mem, tmp84
 316 000f 8B10     		movl	(%rax), %edx	# *__mem_4(D), _1
 317 0011 8B45F4   		movl	-12(%rbp), %eax	# __val, tmp85
 318 0014 01C2     		addl	%eax, %edx	# tmp85, _2
 319 0016 488B45F8 		movq	-8(%rbp), %rax	# __mem, tmp86
 320 001a 8910     		movl	%edx, (%rax)	# _2, *__mem_4(D)
 321              	# /usr/include/c++/9/ext/atomicity.h:74:   { *__mem += __val; }
 322              		.loc 4 74 22
 323 001c 90       		nop	
 324 001d 5D       		popq	%rbp	#
 325              		.cfi_def_cfa 7, 8
 326 001e C3       		ret	
 327              		.cfi_endproc
 328              	.LFE492:
 330              		.section	.text._ZN9__gnu_cxxL27__exchange_and_add_dispatchEPii,"axG",@progbits,_ZNSt16_Sp_counted_
 332              	_ZN9__gnu_cxxL27__exchange_and_add_dispatchEPii:
 333              	.LFB493:
  75:/usr/include/c++/9/ext/atomicity.h **** 
  76:/usr/include/c++/9/ext/atomicity.h ****   static inline _Atomic_word
  77:/usr/include/c++/9/ext/atomicity.h ****   __attribute__ ((__unused__))
  78:/usr/include/c++/9/ext/atomicity.h ****   __exchange_and_add_dispatch(_Atomic_word* __mem, int __val)
  79:/usr/include/c++/9/ext/atomicity.h ****   {
 334              		.loc 4 79 3
 335              		.cfi_startproc
 336 0000 55       		pushq	%rbp	#
 337              		.cfi_def_cfa_offset 16
 338              		.cfi_offset 6, -16
 339 0001 4889E5   		movq	%rsp, %rbp	#,
 340              		.cfi_def_cfa_register 6
 341 0004 4883EC10 		subq	$16, %rsp	#,
 342 0008 48897DF8 		movq	%rdi, -8(%rbp)	# __mem, __mem
 343 000c 8975F4   		movl	%esi, -12(%rbp)	# __val, __val
 344              	# /usr/include/c++/9/ext/atomicity.h:81:     if (__gthread_active_p())
  80:/usr/include/c++/9/ext/atomicity.h **** #ifdef __GTHREADS
  81:/usr/include/c++/9/ext/atomicity.h ****     if (__gthread_active_p())
 345              		.loc 4 81 27
 346 000f E8000000 		call	_ZL18__gthread_active_pv	#
 346      00
 347              	# /usr/include/c++/9/ext/atomicity.h:81:     if (__gthread_active_p())
 348              		.loc 4 81 29
 349 0014 85C0     		testl	%eax, %eax	# _1
 350 0016 0F95C0   		setne	%al	#, retval.8_6
 351              	# /usr/include/c++/9/ext/atomicity.h:81:     if (__gthread_active_p())
 352              		.loc 4 81 5
 353 0019 84C0     		testb	%al, %al	# retval.8_6
 354 001b 7413     		je	.L19	#,
 355              	# /usr/include/c++/9/ext/atomicity.h:82:       return __exchange_and_add(__mem, __val);
  82:/usr/include/c++/9/ext/atomicity.h ****       return __exchange_and_add(__mem, __val);
 356              		.loc 4 82 32
 357 001d 8B55F4   		movl	-12(%rbp), %edx	# __val, tmp86
 358 0020 488B45F8 		movq	-8(%rbp), %rax	# __mem, tmp87
 359 0024 89D6     		movl	%edx, %esi	# tmp86,
 360 0026 4889C7   		movq	%rax, %rdi	# tmp87,
 361 0029 E8000000 		call	_ZN9__gnu_cxxL18__exchange_and_addEPVii	#
 361      00
 362              	# /usr/include/c++/9/ext/atomicity.h:82:       return __exchange_and_add(__mem, __val);
 363              		.loc 4 82 45
 364 002e EB12     		jmp	.L20	#
 365              	.L19:
 366              	# /usr/include/c++/9/ext/atomicity.h:84:       return __exchange_and_add_single(__mem, __val);
  83:/usr/include/c++/9/ext/atomicity.h ****     else
  84:/usr/include/c++/9/ext/atomicity.h ****       return __exchange_and_add_single(__mem, __val);
 367              		.loc 4 84 39
 368 0030 8B55F4   		movl	-12(%rbp), %edx	# __val, tmp88
 369 0033 488B45F8 		movq	-8(%rbp), %rax	# __mem, tmp89
 370 0037 89D6     		movl	%edx, %esi	# tmp88,
 371 0039 4889C7   		movq	%rax, %rdi	# tmp89,
 372 003c E8000000 		call	_ZN9__gnu_cxxL25__exchange_and_add_singleEPii	#
 372      00
 373              	# /usr/include/c++/9/ext/atomicity.h:84:       return __exchange_and_add_single(__mem, __val);
 374              		.loc 4 84 52
 375 0041 90       		nop	
 376              	.L20:
 377              	# /usr/include/c++/9/ext/atomicity.h:88:   }
  85:/usr/include/c++/9/ext/atomicity.h **** #else
  86:/usr/include/c++/9/ext/atomicity.h ****     return __exchange_and_add_single(__mem, __val);
  87:/usr/include/c++/9/ext/atomicity.h **** #endif
  88:/usr/include/c++/9/ext/atomicity.h ****   }
 378              		.loc 4 88 3
 379 0042 C9       		leave	
 380              		.cfi_def_cfa 7, 8
 381 0043 C3       		ret	
 382              		.cfi_endproc
 383              	.LFE493:
 385              		.section	.text._ZN9__gnu_cxxL21__atomic_add_dispatchEPii,"axG",@progbits,_ZNSt16_Sp_counted_baseIL
 387              	_ZN9__gnu_cxxL21__atomic_add_dispatchEPii:
 388              	.LFB494:
  89:/usr/include/c++/9/ext/atomicity.h **** 
  90:/usr/include/c++/9/ext/atomicity.h ****   static inline void
  91:/usr/include/c++/9/ext/atomicity.h ****   __attribute__ ((__unused__))
  92:/usr/include/c++/9/ext/atomicity.h ****   __atomic_add_dispatch(_Atomic_word* __mem, int __val)
  93:/usr/include/c++/9/ext/atomicity.h ****   {
 389              		.loc 4 93 3
 390              		.cfi_startproc
 391 0000 55       		pushq	%rbp	#
 392              		.cfi_def_cfa_offset 16
 393              		.cfi_offset 6, -16
 394 0001 4889E5   		movq	%rsp, %rbp	#,
 395              		.cfi_def_cfa_register 6
 396 0004 4883EC10 		subq	$16, %rsp	#,
 397 0008 48897DF8 		movq	%rdi, -8(%rbp)	# __mem, __mem
 398 000c 8975F4   		movl	%esi, -12(%rbp)	# __val, __val
 399              	# /usr/include/c++/9/ext/atomicity.h:95:     if (__gthread_active_p())
  94:/usr/include/c++/9/ext/atomicity.h **** #ifdef __GTHREADS
  95:/usr/include/c++/9/ext/atomicity.h ****     if (__gthread_active_p())
 400              		.loc 4 95 27
 401 000f E8000000 		call	_ZL18__gthread_active_pv	#
 401      00
 402              	# /usr/include/c++/9/ext/atomicity.h:95:     if (__gthread_active_p())
 403              		.loc 4 95 29
 404 0014 85C0     		testl	%eax, %eax	# _1
 405 0016 0F95C0   		setne	%al	#, retval.4_5
 406              	# /usr/include/c++/9/ext/atomicity.h:95:     if (__gthread_active_p())
 407              		.loc 4 95 5
 408 0019 84C0     		testb	%al, %al	# retval.4_5
 409 001b 7413     		je	.L22	#,
 410              	# /usr/include/c++/9/ext/atomicity.h:96:       __atomic_add(__mem, __val);
  96:/usr/include/c++/9/ext/atomicity.h ****       __atomic_add(__mem, __val);
 411              		.loc 4 96 19
 412 001d 8B55F4   		movl	-12(%rbp), %edx	# __val, tmp84
 413 0020 488B45F8 		movq	-8(%rbp), %rax	# __mem, tmp85
 414 0024 89D6     		movl	%edx, %esi	# tmp84,
 415 0026 4889C7   		movq	%rax, %rdi	# tmp85,
 416 0029 E8000000 		call	_ZN9__gnu_cxxL12__atomic_addEPVii	#
 416      00
 417              	# /usr/include/c++/9/ext/atomicity.h:102:   }
  97:/usr/include/c++/9/ext/atomicity.h ****     else
  98:/usr/include/c++/9/ext/atomicity.h ****       __atomic_add_single(__mem, __val);
  99:/usr/include/c++/9/ext/atomicity.h **** #else
 100:/usr/include/c++/9/ext/atomicity.h ****     __atomic_add_single(__mem, __val);
 101:/usr/include/c++/9/ext/atomicity.h **** #endif
 102:/usr/include/c++/9/ext/atomicity.h ****   }
 418              		.loc 4 102 3
 419 002e EB11     		jmp	.L24	#
 420              	.L22:
 421              	# /usr/include/c++/9/ext/atomicity.h:98:       __atomic_add_single(__mem, __val);
  98:/usr/include/c++/9/ext/atomicity.h **** #else
 422              		.loc 4 98 26
 423 0030 8B55F4   		movl	-12(%rbp), %edx	# __val, tmp86
 424 0033 488B45F8 		movq	-8(%rbp), %rax	# __mem, tmp87
 425 0037 89D6     		movl	%edx, %esi	# tmp86,
 426 0039 4889C7   		movq	%rax, %rdi	# tmp87,
 427 003c E8000000 		call	_ZN9__gnu_cxxL19__atomic_add_singleEPii	#
 427      00
 428              	.L24:
 429              	# /usr/include/c++/9/ext/atomicity.h:102:   }
 430              		.loc 4 102 3
 431 0041 90       		nop	
 432 0042 C9       		leave	
 433              		.cfi_def_cfa 7, 8
 434 0043 C3       		ret	
 435              		.cfi_endproc
 436              	.LFE494:
 438              		.local	_ZStL8__ioinit
 439              		.comm	_ZStL8__ioinit,1,1
 440              		.section	.rodata
 441 0001 000000   		.align 4
 444              	_ZN9__gnu_cxxL21__default_lock_policyE:
 445 0004 02000000 		.long	2
 448              	_ZStL13allocator_arg:
 449 0008 00       		.zero	1
 452              	_ZStL6ignore:
 453 0009 00       		.zero	1
 454              		.weak	_ZZNSt19_Sp_make_shared_tag5_S_tiEvE5__tag
 455              		.section	.rodata._ZZNSt19_Sp_make_shared_tag5_S_tiEvE5__tag,"aG",@progbits,_ZZNSt19_Sp_make_shared
 456              		.align 8
 459              	_ZZNSt19_Sp_make_shared_tag5_S_tiEvE5__tag:
 460 0000 00000000 		.zero	16
 460      00000000 
 460      00000000 
 460      00000000 
 461              		.section	.text._ZNSt19_Sp_make_shared_tag5_S_tiEv,"axG",@progbits,_ZNSt19_Sp_make_shared_tag5_S_ti
 462              		.weak	_ZNSt19_Sp_make_shared_tag5_S_tiEv
 464              	_ZNSt19_Sp_make_shared_tag5_S_tiEv:
 465              	.LFB2063:
 466              		.file 5 "/usr/include/c++/9/bits/shared_ptr_base.h"
   1:/usr/include/c++/9/bits/shared_ptr_base.h **** // shared_ptr and weak_ptr implementation details -*- C++ -*-
   2:/usr/include/c++/9/bits/shared_ptr_base.h **** 
   3:/usr/include/c++/9/bits/shared_ptr_base.h **** // Copyright (C) 2007-2019 Free Software Foundation, Inc.
   4:/usr/include/c++/9/bits/shared_ptr_base.h **** //
   5:/usr/include/c++/9/bits/shared_ptr_base.h **** // This file is part of the GNU ISO C++ Library.  This library is free
   6:/usr/include/c++/9/bits/shared_ptr_base.h **** // software; you can redistribute it and/or modify it under the
   7:/usr/include/c++/9/bits/shared_ptr_base.h **** // terms of the GNU General Public License as published by the
   8:/usr/include/c++/9/bits/shared_ptr_base.h **** // Free Software Foundation; either version 3, or (at your option)
   9:/usr/include/c++/9/bits/shared_ptr_base.h **** // any later version.
  10:/usr/include/c++/9/bits/shared_ptr_base.h **** 
  11:/usr/include/c++/9/bits/shared_ptr_base.h **** // This library is distributed in the hope that it will be useful,
  12:/usr/include/c++/9/bits/shared_ptr_base.h **** // but WITHOUT ANY WARRANTY; without even the implied warranty of
  13:/usr/include/c++/9/bits/shared_ptr_base.h **** // MERCHANTABILITY or FITNESS FOR A PARTICULAR PURPOSE.  See the
  14:/usr/include/c++/9/bits/shared_ptr_base.h **** // GNU General Public License for more details.
  15:/usr/include/c++/9/bits/shared_ptr_base.h **** 
  16:/usr/include/c++/9/bits/shared_ptr_base.h **** // Under Section 7 of GPL version 3, you are granted additional
  17:/usr/include/c++/9/bits/shared_ptr_base.h **** // permissions described in the GCC Runtime Library Exception, version
  18:/usr/include/c++/9/bits/shared_ptr_base.h **** // 3.1, as published by the Free Software Foundation.
  19:/usr/include/c++/9/bits/shared_ptr_base.h **** 
  20:/usr/include/c++/9/bits/shared_ptr_base.h **** // You should have received a copy of the GNU General Public License and
  21:/usr/include/c++/9/bits/shared_ptr_base.h **** // a copy of the GCC Runtime Library Exception along with this program;
  22:/usr/include/c++/9/bits/shared_ptr_base.h **** // see the files COPYING3 and COPYING.RUNTIME respectively.  If not, see
  23:/usr/include/c++/9/bits/shared_ptr_base.h **** // <http://www.gnu.org/licenses/>.
  24:/usr/include/c++/9/bits/shared_ptr_base.h **** 
  25:/usr/include/c++/9/bits/shared_ptr_base.h **** // GCC Note: Based on files from version 1.32.0 of the Boost library.
  26:/usr/include/c++/9/bits/shared_ptr_base.h **** 
  27:/usr/include/c++/9/bits/shared_ptr_base.h **** //  shared_count.hpp
  28:/usr/include/c++/9/bits/shared_ptr_base.h **** //  Copyright (c) 2001, 2002, 2003 Peter Dimov and Multi Media Ltd.
  29:/usr/include/c++/9/bits/shared_ptr_base.h **** 
  30:/usr/include/c++/9/bits/shared_ptr_base.h **** //  shared_ptr.hpp
  31:/usr/include/c++/9/bits/shared_ptr_base.h **** //  Copyright (C) 1998, 1999 Greg Colvin and Beman Dawes.
  32:/usr/include/c++/9/bits/shared_ptr_base.h **** //  Copyright (C) 2001, 2002, 2003 Peter Dimov
  33:/usr/include/c++/9/bits/shared_ptr_base.h **** 
  34:/usr/include/c++/9/bits/shared_ptr_base.h **** //  weak_ptr.hpp
  35:/usr/include/c++/9/bits/shared_ptr_base.h **** //  Copyright (C) 2001, 2002, 2003 Peter Dimov
  36:/usr/include/c++/9/bits/shared_ptr_base.h **** 
  37:/usr/include/c++/9/bits/shared_ptr_base.h **** //  enable_shared_from_this.hpp
  38:/usr/include/c++/9/bits/shared_ptr_base.h **** //  Copyright (C) 2002 Peter Dimov
  39:/usr/include/c++/9/bits/shared_ptr_base.h **** 
  40:/usr/include/c++/9/bits/shared_ptr_base.h **** // Distributed under the Boost Software License, Version 1.0. (See
  41:/usr/include/c++/9/bits/shared_ptr_base.h **** // accompanying file LICENSE_1_0.txt or copy at
  42:/usr/include/c++/9/bits/shared_ptr_base.h **** // http://www.boost.org/LICENSE_1_0.txt)
  43:/usr/include/c++/9/bits/shared_ptr_base.h **** 
  44:/usr/include/c++/9/bits/shared_ptr_base.h **** /** @file bits/shared_ptr_base.h
  45:/usr/include/c++/9/bits/shared_ptr_base.h ****  *  This is an internal header file, included by other library headers.
  46:/usr/include/c++/9/bits/shared_ptr_base.h ****  *  Do not attempt to use it directly. @headername{memory}
  47:/usr/include/c++/9/bits/shared_ptr_base.h ****  */
  48:/usr/include/c++/9/bits/shared_ptr_base.h **** 
  49:/usr/include/c++/9/bits/shared_ptr_base.h **** #ifndef _SHARED_PTR_BASE_H
  50:/usr/include/c++/9/bits/shared_ptr_base.h **** #define _SHARED_PTR_BASE_H 1
  51:/usr/include/c++/9/bits/shared_ptr_base.h **** 
  52:/usr/include/c++/9/bits/shared_ptr_base.h **** #include <typeinfo>
  53:/usr/include/c++/9/bits/shared_ptr_base.h **** #include <bits/allocated_ptr.h>
  54:/usr/include/c++/9/bits/shared_ptr_base.h **** #include <bits/refwrap.h>
  55:/usr/include/c++/9/bits/shared_ptr_base.h **** #include <bits/stl_function.h>
  56:/usr/include/c++/9/bits/shared_ptr_base.h **** #include <ext/aligned_buffer.h>
  57:/usr/include/c++/9/bits/shared_ptr_base.h **** 
  58:/usr/include/c++/9/bits/shared_ptr_base.h **** namespace std _GLIBCXX_VISIBILITY(default)
  59:/usr/include/c++/9/bits/shared_ptr_base.h **** {
  60:/usr/include/c++/9/bits/shared_ptr_base.h **** _GLIBCXX_BEGIN_NAMESPACE_VERSION
  61:/usr/include/c++/9/bits/shared_ptr_base.h **** 
  62:/usr/include/c++/9/bits/shared_ptr_base.h **** #if _GLIBCXX_USE_DEPRECATED
  63:/usr/include/c++/9/bits/shared_ptr_base.h **** #pragma GCC diagnostic push
  64:/usr/include/c++/9/bits/shared_ptr_base.h **** #pragma GCC diagnostic ignored "-Wdeprecated-declarations"
  65:/usr/include/c++/9/bits/shared_ptr_base.h ****   template<typename> class auto_ptr;
  66:/usr/include/c++/9/bits/shared_ptr_base.h **** #pragma GCC diagnostic pop
  67:/usr/include/c++/9/bits/shared_ptr_base.h **** #endif
  68:/usr/include/c++/9/bits/shared_ptr_base.h **** 
  69:/usr/include/c++/9/bits/shared_ptr_base.h ****  /**
  70:/usr/include/c++/9/bits/shared_ptr_base.h ****    *  @brief  Exception possibly thrown by @c shared_ptr.
  71:/usr/include/c++/9/bits/shared_ptr_base.h ****    *  @ingroup exceptions
  72:/usr/include/c++/9/bits/shared_ptr_base.h ****    */
  73:/usr/include/c++/9/bits/shared_ptr_base.h ****   class bad_weak_ptr : public std::exception
  74:/usr/include/c++/9/bits/shared_ptr_base.h ****   {
  75:/usr/include/c++/9/bits/shared_ptr_base.h ****   public:
  76:/usr/include/c++/9/bits/shared_ptr_base.h ****     virtual char const* what() const noexcept;
  77:/usr/include/c++/9/bits/shared_ptr_base.h **** 
  78:/usr/include/c++/9/bits/shared_ptr_base.h ****     virtual ~bad_weak_ptr() noexcept;
  79:/usr/include/c++/9/bits/shared_ptr_base.h ****   };
  80:/usr/include/c++/9/bits/shared_ptr_base.h **** 
  81:/usr/include/c++/9/bits/shared_ptr_base.h ****   // Substitute for bad_weak_ptr object in the case of -fno-exceptions.
  82:/usr/include/c++/9/bits/shared_ptr_base.h ****   inline void
  83:/usr/include/c++/9/bits/shared_ptr_base.h ****   __throw_bad_weak_ptr()
  84:/usr/include/c++/9/bits/shared_ptr_base.h ****   { _GLIBCXX_THROW_OR_ABORT(bad_weak_ptr()); }
  85:/usr/include/c++/9/bits/shared_ptr_base.h **** 
  86:/usr/include/c++/9/bits/shared_ptr_base.h ****   using __gnu_cxx::_Lock_policy;
  87:/usr/include/c++/9/bits/shared_ptr_base.h ****   using __gnu_cxx::__default_lock_policy;
  88:/usr/include/c++/9/bits/shared_ptr_base.h ****   using __gnu_cxx::_S_single;
  89:/usr/include/c++/9/bits/shared_ptr_base.h ****   using __gnu_cxx::_S_mutex;
  90:/usr/include/c++/9/bits/shared_ptr_base.h ****   using __gnu_cxx::_S_atomic;
  91:/usr/include/c++/9/bits/shared_ptr_base.h **** 
  92:/usr/include/c++/9/bits/shared_ptr_base.h ****   // Empty helper class except when the template argument is _S_mutex.
  93:/usr/include/c++/9/bits/shared_ptr_base.h ****   template<_Lock_policy _Lp>
  94:/usr/include/c++/9/bits/shared_ptr_base.h ****     class _Mutex_base
  95:/usr/include/c++/9/bits/shared_ptr_base.h ****     {
  96:/usr/include/c++/9/bits/shared_ptr_base.h ****     protected:
  97:/usr/include/c++/9/bits/shared_ptr_base.h ****       // The atomic policy uses fully-fenced builtins, single doesn't care.
  98:/usr/include/c++/9/bits/shared_ptr_base.h ****       enum { _S_need_barriers = 0 };
  99:/usr/include/c++/9/bits/shared_ptr_base.h ****     };
 100:/usr/include/c++/9/bits/shared_ptr_base.h **** 
 101:/usr/include/c++/9/bits/shared_ptr_base.h ****   template<>
 102:/usr/include/c++/9/bits/shared_ptr_base.h ****     class _Mutex_base<_S_mutex>
 103:/usr/include/c++/9/bits/shared_ptr_base.h ****     : public __gnu_cxx::__mutex
 104:/usr/include/c++/9/bits/shared_ptr_base.h ****     {
 105:/usr/include/c++/9/bits/shared_ptr_base.h ****     protected:
 106:/usr/include/c++/9/bits/shared_ptr_base.h ****       // This policy is used when atomic builtins are not available.
 107:/usr/include/c++/9/bits/shared_ptr_base.h ****       // The replacement atomic operations might not have the necessary
 108:/usr/include/c++/9/bits/shared_ptr_base.h ****       // memory barriers.
 109:/usr/include/c++/9/bits/shared_ptr_base.h ****       enum { _S_need_barriers = 1 };
 110:/usr/include/c++/9/bits/shared_ptr_base.h ****     };
 111:/usr/include/c++/9/bits/shared_ptr_base.h **** 
 112:/usr/include/c++/9/bits/shared_ptr_base.h ****   template<_Lock_policy _Lp = __default_lock_policy>
 113:/usr/include/c++/9/bits/shared_ptr_base.h ****     class _Sp_counted_base
 114:/usr/include/c++/9/bits/shared_ptr_base.h ****     : public _Mutex_base<_Lp>
 115:/usr/include/c++/9/bits/shared_ptr_base.h ****     {
 116:/usr/include/c++/9/bits/shared_ptr_base.h ****     public:
 117:/usr/include/c++/9/bits/shared_ptr_base.h ****       _Sp_counted_base() noexcept
 118:/usr/include/c++/9/bits/shared_ptr_base.h ****       : _M_use_count(1), _M_weak_count(1) { }
 119:/usr/include/c++/9/bits/shared_ptr_base.h **** 
 120:/usr/include/c++/9/bits/shared_ptr_base.h ****       virtual
 121:/usr/include/c++/9/bits/shared_ptr_base.h ****       ~_Sp_counted_base() noexcept
 122:/usr/include/c++/9/bits/shared_ptr_base.h ****       { }
 123:/usr/include/c++/9/bits/shared_ptr_base.h **** 
 124:/usr/include/c++/9/bits/shared_ptr_base.h ****       // Called when _M_use_count drops to zero, to release the resources
 125:/usr/include/c++/9/bits/shared_ptr_base.h ****       // managed by *this.
 126:/usr/include/c++/9/bits/shared_ptr_base.h ****       virtual void
 127:/usr/include/c++/9/bits/shared_ptr_base.h ****       _M_dispose() noexcept = 0;
 128:/usr/include/c++/9/bits/shared_ptr_base.h **** 
 129:/usr/include/c++/9/bits/shared_ptr_base.h ****       // Called when _M_weak_count drops to zero.
 130:/usr/include/c++/9/bits/shared_ptr_base.h ****       virtual void
 131:/usr/include/c++/9/bits/shared_ptr_base.h ****       _M_destroy() noexcept
 132:/usr/include/c++/9/bits/shared_ptr_base.h ****       { delete this; }
 133:/usr/include/c++/9/bits/shared_ptr_base.h **** 
 134:/usr/include/c++/9/bits/shared_ptr_base.h ****       virtual void*
 135:/usr/include/c++/9/bits/shared_ptr_base.h ****       _M_get_deleter(const std::type_info&) noexcept = 0;
 136:/usr/include/c++/9/bits/shared_ptr_base.h **** 
 137:/usr/include/c++/9/bits/shared_ptr_base.h ****       void
 138:/usr/include/c++/9/bits/shared_ptr_base.h ****       _M_add_ref_copy()
 139:/usr/include/c++/9/bits/shared_ptr_base.h ****       { __gnu_cxx::__atomic_add_dispatch(&_M_use_count, 1); }
 140:/usr/include/c++/9/bits/shared_ptr_base.h **** 
 141:/usr/include/c++/9/bits/shared_ptr_base.h ****       void
 142:/usr/include/c++/9/bits/shared_ptr_base.h ****       _M_add_ref_lock();
 143:/usr/include/c++/9/bits/shared_ptr_base.h **** 
 144:/usr/include/c++/9/bits/shared_ptr_base.h ****       bool
 145:/usr/include/c++/9/bits/shared_ptr_base.h ****       _M_add_ref_lock_nothrow();
 146:/usr/include/c++/9/bits/shared_ptr_base.h **** 
 147:/usr/include/c++/9/bits/shared_ptr_base.h ****       void
 148:/usr/include/c++/9/bits/shared_ptr_base.h ****       _M_release() noexcept
 149:/usr/include/c++/9/bits/shared_ptr_base.h ****       {
 150:/usr/include/c++/9/bits/shared_ptr_base.h ****         // Be race-detector-friendly.  For more info see bits/c++config.
 151:/usr/include/c++/9/bits/shared_ptr_base.h ****         _GLIBCXX_SYNCHRONIZATION_HAPPENS_BEFORE(&_M_use_count);
 152:/usr/include/c++/9/bits/shared_ptr_base.h **** 	if (__gnu_cxx::__exchange_and_add_dispatch(&_M_use_count, -1) == 1)
 153:/usr/include/c++/9/bits/shared_ptr_base.h **** 	  {
 154:/usr/include/c++/9/bits/shared_ptr_base.h ****             _GLIBCXX_SYNCHRONIZATION_HAPPENS_AFTER(&_M_use_count);
 155:/usr/include/c++/9/bits/shared_ptr_base.h **** 	    _M_dispose();
 156:/usr/include/c++/9/bits/shared_ptr_base.h **** 	    // There must be a memory barrier between dispose() and destroy()
 157:/usr/include/c++/9/bits/shared_ptr_base.h **** 	    // to ensure that the effects of dispose() are observed in the
 158:/usr/include/c++/9/bits/shared_ptr_base.h **** 	    // thread that runs destroy().
 159:/usr/include/c++/9/bits/shared_ptr_base.h **** 	    // See http://gcc.gnu.org/ml/libstdc++/2005-11/msg00136.html
 160:/usr/include/c++/9/bits/shared_ptr_base.h **** 	    if (_Mutex_base<_Lp>::_S_need_barriers)
 161:/usr/include/c++/9/bits/shared_ptr_base.h **** 	      {
 162:/usr/include/c++/9/bits/shared_ptr_base.h **** 		__atomic_thread_fence (__ATOMIC_ACQ_REL);
 163:/usr/include/c++/9/bits/shared_ptr_base.h **** 	      }
 164:/usr/include/c++/9/bits/shared_ptr_base.h **** 
 165:/usr/include/c++/9/bits/shared_ptr_base.h ****             // Be race-detector-friendly.  For more info see bits/c++config.
 166:/usr/include/c++/9/bits/shared_ptr_base.h ****             _GLIBCXX_SYNCHRONIZATION_HAPPENS_BEFORE(&_M_weak_count);
 167:/usr/include/c++/9/bits/shared_ptr_base.h **** 	    if (__gnu_cxx::__exchange_and_add_dispatch(&_M_weak_count,
 168:/usr/include/c++/9/bits/shared_ptr_base.h **** 						       -1) == 1)
 169:/usr/include/c++/9/bits/shared_ptr_base.h ****               {
 170:/usr/include/c++/9/bits/shared_ptr_base.h ****                 _GLIBCXX_SYNCHRONIZATION_HAPPENS_AFTER(&_M_weak_count);
 171:/usr/include/c++/9/bits/shared_ptr_base.h **** 	        _M_destroy();
 172:/usr/include/c++/9/bits/shared_ptr_base.h ****               }
 173:/usr/include/c++/9/bits/shared_ptr_base.h **** 	  }
 174:/usr/include/c++/9/bits/shared_ptr_base.h ****       }
 175:/usr/include/c++/9/bits/shared_ptr_base.h **** 
 176:/usr/include/c++/9/bits/shared_ptr_base.h ****       void
 177:/usr/include/c++/9/bits/shared_ptr_base.h ****       _M_weak_add_ref() noexcept
 178:/usr/include/c++/9/bits/shared_ptr_base.h ****       { __gnu_cxx::__atomic_add_dispatch(&_M_weak_count, 1); }
 179:/usr/include/c++/9/bits/shared_ptr_base.h **** 
 180:/usr/include/c++/9/bits/shared_ptr_base.h ****       void
 181:/usr/include/c++/9/bits/shared_ptr_base.h ****       _M_weak_release() noexcept
 182:/usr/include/c++/9/bits/shared_ptr_base.h ****       {
 183:/usr/include/c++/9/bits/shared_ptr_base.h ****         // Be race-detector-friendly. For more info see bits/c++config.
 184:/usr/include/c++/9/bits/shared_ptr_base.h ****         _GLIBCXX_SYNCHRONIZATION_HAPPENS_BEFORE(&_M_weak_count);
 185:/usr/include/c++/9/bits/shared_ptr_base.h **** 	if (__gnu_cxx::__exchange_and_add_dispatch(&_M_weak_count, -1) == 1)
 186:/usr/include/c++/9/bits/shared_ptr_base.h **** 	  {
 187:/usr/include/c++/9/bits/shared_ptr_base.h ****             _GLIBCXX_SYNCHRONIZATION_HAPPENS_AFTER(&_M_weak_count);
 188:/usr/include/c++/9/bits/shared_ptr_base.h **** 	    if (_Mutex_base<_Lp>::_S_need_barriers)
 189:/usr/include/c++/9/bits/shared_ptr_base.h **** 	      {
 190:/usr/include/c++/9/bits/shared_ptr_base.h **** 	        // See _M_release(),
 191:/usr/include/c++/9/bits/shared_ptr_base.h **** 	        // destroy() must observe results of dispose()
 192:/usr/include/c++/9/bits/shared_ptr_base.h **** 		__atomic_thread_fence (__ATOMIC_ACQ_REL);
 193:/usr/include/c++/9/bits/shared_ptr_base.h **** 	      }
 194:/usr/include/c++/9/bits/shared_ptr_base.h **** 	    _M_destroy();
 195:/usr/include/c++/9/bits/shared_ptr_base.h **** 	  }
 196:/usr/include/c++/9/bits/shared_ptr_base.h ****       }
 197:/usr/include/c++/9/bits/shared_ptr_base.h **** 
 198:/usr/include/c++/9/bits/shared_ptr_base.h ****       long
 199:/usr/include/c++/9/bits/shared_ptr_base.h ****       _M_get_use_count() const noexcept
 200:/usr/include/c++/9/bits/shared_ptr_base.h ****       {
 201:/usr/include/c++/9/bits/shared_ptr_base.h ****         // No memory barrier is used here so there is no synchronization
 202:/usr/include/c++/9/bits/shared_ptr_base.h ****         // with other threads.
 203:/usr/include/c++/9/bits/shared_ptr_base.h ****         return __atomic_load_n(&_M_use_count, __ATOMIC_RELAXED);
 204:/usr/include/c++/9/bits/shared_ptr_base.h ****       }
 205:/usr/include/c++/9/bits/shared_ptr_base.h **** 
 206:/usr/include/c++/9/bits/shared_ptr_base.h ****     private:
 207:/usr/include/c++/9/bits/shared_ptr_base.h ****       _Sp_counted_base(_Sp_counted_base const&) = delete;
 208:/usr/include/c++/9/bits/shared_ptr_base.h ****       _Sp_counted_base& operator=(_Sp_counted_base const&) = delete;
 209:/usr/include/c++/9/bits/shared_ptr_base.h **** 
 210:/usr/include/c++/9/bits/shared_ptr_base.h ****       _Atomic_word  _M_use_count;     // #shared
 211:/usr/include/c++/9/bits/shared_ptr_base.h ****       _Atomic_word  _M_weak_count;    // #weak + (#shared != 0)
 212:/usr/include/c++/9/bits/shared_ptr_base.h ****     };
 213:/usr/include/c++/9/bits/shared_ptr_base.h **** 
 214:/usr/include/c++/9/bits/shared_ptr_base.h ****   template<>
 215:/usr/include/c++/9/bits/shared_ptr_base.h ****     inline void
 216:/usr/include/c++/9/bits/shared_ptr_base.h ****     _Sp_counted_base<_S_single>::
 217:/usr/include/c++/9/bits/shared_ptr_base.h ****     _M_add_ref_lock()
 218:/usr/include/c++/9/bits/shared_ptr_base.h ****     {
 219:/usr/include/c++/9/bits/shared_ptr_base.h ****       if (_M_use_count == 0)
 220:/usr/include/c++/9/bits/shared_ptr_base.h **** 	__throw_bad_weak_ptr();
 221:/usr/include/c++/9/bits/shared_ptr_base.h ****       ++_M_use_count;
 222:/usr/include/c++/9/bits/shared_ptr_base.h ****     }
 223:/usr/include/c++/9/bits/shared_ptr_base.h **** 
 224:/usr/include/c++/9/bits/shared_ptr_base.h ****   template<>
 225:/usr/include/c++/9/bits/shared_ptr_base.h ****     inline void
 226:/usr/include/c++/9/bits/shared_ptr_base.h ****     _Sp_counted_base<_S_mutex>::
 227:/usr/include/c++/9/bits/shared_ptr_base.h ****     _M_add_ref_lock()
 228:/usr/include/c++/9/bits/shared_ptr_base.h ****     {
 229:/usr/include/c++/9/bits/shared_ptr_base.h ****       __gnu_cxx::__scoped_lock sentry(*this);
 230:/usr/include/c++/9/bits/shared_ptr_base.h ****       if (__gnu_cxx::__exchange_and_add_dispatch(&_M_use_count, 1) == 0)
 231:/usr/include/c++/9/bits/shared_ptr_base.h **** 	{
 232:/usr/include/c++/9/bits/shared_ptr_base.h **** 	  _M_use_count = 0;
 233:/usr/include/c++/9/bits/shared_ptr_base.h **** 	  __throw_bad_weak_ptr();
 234:/usr/include/c++/9/bits/shared_ptr_base.h **** 	}
 235:/usr/include/c++/9/bits/shared_ptr_base.h ****     }
 236:/usr/include/c++/9/bits/shared_ptr_base.h **** 
 237:/usr/include/c++/9/bits/shared_ptr_base.h ****   template<>
 238:/usr/include/c++/9/bits/shared_ptr_base.h ****     inline void
 239:/usr/include/c++/9/bits/shared_ptr_base.h ****     _Sp_counted_base<_S_atomic>::
 240:/usr/include/c++/9/bits/shared_ptr_base.h ****     _M_add_ref_lock()
 241:/usr/include/c++/9/bits/shared_ptr_base.h ****     {
 242:/usr/include/c++/9/bits/shared_ptr_base.h ****       // Perform lock-free add-if-not-zero operation.
 243:/usr/include/c++/9/bits/shared_ptr_base.h ****       _Atomic_word __count = _M_get_use_count();
 244:/usr/include/c++/9/bits/shared_ptr_base.h ****       do
 245:/usr/include/c++/9/bits/shared_ptr_base.h **** 	{
 246:/usr/include/c++/9/bits/shared_ptr_base.h **** 	  if (__count == 0)
 247:/usr/include/c++/9/bits/shared_ptr_base.h **** 	    __throw_bad_weak_ptr();
 248:/usr/include/c++/9/bits/shared_ptr_base.h **** 	  // Replace the current counter value with the old value + 1, as
 249:/usr/include/c++/9/bits/shared_ptr_base.h **** 	  // long as it's not changed meanwhile.
 250:/usr/include/c++/9/bits/shared_ptr_base.h **** 	}
 251:/usr/include/c++/9/bits/shared_ptr_base.h ****       while (!__atomic_compare_exchange_n(&_M_use_count, &__count, __count + 1,
 252:/usr/include/c++/9/bits/shared_ptr_base.h **** 					  true, __ATOMIC_ACQ_REL,
 253:/usr/include/c++/9/bits/shared_ptr_base.h **** 					  __ATOMIC_RELAXED));
 254:/usr/include/c++/9/bits/shared_ptr_base.h ****     }
 255:/usr/include/c++/9/bits/shared_ptr_base.h **** 
 256:/usr/include/c++/9/bits/shared_ptr_base.h ****   template<>
 257:/usr/include/c++/9/bits/shared_ptr_base.h ****     inline bool
 258:/usr/include/c++/9/bits/shared_ptr_base.h ****     _Sp_counted_base<_S_single>::
 259:/usr/include/c++/9/bits/shared_ptr_base.h ****     _M_add_ref_lock_nothrow()
 260:/usr/include/c++/9/bits/shared_ptr_base.h ****     {
 261:/usr/include/c++/9/bits/shared_ptr_base.h ****       if (_M_use_count == 0)
 262:/usr/include/c++/9/bits/shared_ptr_base.h **** 	return false;
 263:/usr/include/c++/9/bits/shared_ptr_base.h ****       ++_M_use_count;
 264:/usr/include/c++/9/bits/shared_ptr_base.h ****       return true;
 265:/usr/include/c++/9/bits/shared_ptr_base.h ****     }
 266:/usr/include/c++/9/bits/shared_ptr_base.h **** 
 267:/usr/include/c++/9/bits/shared_ptr_base.h ****   template<>
 268:/usr/include/c++/9/bits/shared_ptr_base.h ****     inline bool
 269:/usr/include/c++/9/bits/shared_ptr_base.h ****     _Sp_counted_base<_S_mutex>::
 270:/usr/include/c++/9/bits/shared_ptr_base.h ****     _M_add_ref_lock_nothrow()
 271:/usr/include/c++/9/bits/shared_ptr_base.h ****     {
 272:/usr/include/c++/9/bits/shared_ptr_base.h ****       __gnu_cxx::__scoped_lock sentry(*this);
 273:/usr/include/c++/9/bits/shared_ptr_base.h ****       if (__gnu_cxx::__exchange_and_add_dispatch(&_M_use_count, 1) == 0)
 274:/usr/include/c++/9/bits/shared_ptr_base.h **** 	{
 275:/usr/include/c++/9/bits/shared_ptr_base.h **** 	  _M_use_count = 0;
 276:/usr/include/c++/9/bits/shared_ptr_base.h **** 	  return false;
 277:/usr/include/c++/9/bits/shared_ptr_base.h **** 	}
 278:/usr/include/c++/9/bits/shared_ptr_base.h ****       return true;
 279:/usr/include/c++/9/bits/shared_ptr_base.h ****     }
 280:/usr/include/c++/9/bits/shared_ptr_base.h **** 
 281:/usr/include/c++/9/bits/shared_ptr_base.h ****   template<>
 282:/usr/include/c++/9/bits/shared_ptr_base.h ****     inline bool
 283:/usr/include/c++/9/bits/shared_ptr_base.h ****     _Sp_counted_base<_S_atomic>::
 284:/usr/include/c++/9/bits/shared_ptr_base.h ****     _M_add_ref_lock_nothrow()
 285:/usr/include/c++/9/bits/shared_ptr_base.h ****     {
 286:/usr/include/c++/9/bits/shared_ptr_base.h ****       // Perform lock-free add-if-not-zero operation.
 287:/usr/include/c++/9/bits/shared_ptr_base.h ****       _Atomic_word __count = _M_get_use_count();
 288:/usr/include/c++/9/bits/shared_ptr_base.h ****       do
 289:/usr/include/c++/9/bits/shared_ptr_base.h **** 	{
 290:/usr/include/c++/9/bits/shared_ptr_base.h **** 	  if (__count == 0)
 291:/usr/include/c++/9/bits/shared_ptr_base.h **** 	    return false;
 292:/usr/include/c++/9/bits/shared_ptr_base.h **** 	  // Replace the current counter value with the old value + 1, as
 293:/usr/include/c++/9/bits/shared_ptr_base.h **** 	  // long as it's not changed meanwhile.
 294:/usr/include/c++/9/bits/shared_ptr_base.h **** 	}
 295:/usr/include/c++/9/bits/shared_ptr_base.h ****       while (!__atomic_compare_exchange_n(&_M_use_count, &__count, __count + 1,
 296:/usr/include/c++/9/bits/shared_ptr_base.h **** 					  true, __ATOMIC_ACQ_REL,
 297:/usr/include/c++/9/bits/shared_ptr_base.h **** 					  __ATOMIC_RELAXED));
 298:/usr/include/c++/9/bits/shared_ptr_base.h ****       return true;
 299:/usr/include/c++/9/bits/shared_ptr_base.h ****     }
 300:/usr/include/c++/9/bits/shared_ptr_base.h **** 
 301:/usr/include/c++/9/bits/shared_ptr_base.h ****   template<>
 302:/usr/include/c++/9/bits/shared_ptr_base.h ****     inline void
 303:/usr/include/c++/9/bits/shared_ptr_base.h ****     _Sp_counted_base<_S_single>::_M_add_ref_copy()
 304:/usr/include/c++/9/bits/shared_ptr_base.h ****     { ++_M_use_count; }
 305:/usr/include/c++/9/bits/shared_ptr_base.h **** 
 306:/usr/include/c++/9/bits/shared_ptr_base.h ****   template<>
 307:/usr/include/c++/9/bits/shared_ptr_base.h ****     inline void
 308:/usr/include/c++/9/bits/shared_ptr_base.h ****     _Sp_counted_base<_S_single>::_M_release() noexcept
 309:/usr/include/c++/9/bits/shared_ptr_base.h ****     {
 310:/usr/include/c++/9/bits/shared_ptr_base.h ****       if (--_M_use_count == 0)
 311:/usr/include/c++/9/bits/shared_ptr_base.h ****         {
 312:/usr/include/c++/9/bits/shared_ptr_base.h ****           _M_dispose();
 313:/usr/include/c++/9/bits/shared_ptr_base.h ****           if (--_M_weak_count == 0)
 314:/usr/include/c++/9/bits/shared_ptr_base.h ****             _M_destroy();
 315:/usr/include/c++/9/bits/shared_ptr_base.h ****         }
 316:/usr/include/c++/9/bits/shared_ptr_base.h ****     }
 317:/usr/include/c++/9/bits/shared_ptr_base.h **** 
 318:/usr/include/c++/9/bits/shared_ptr_base.h ****   template<>
 319:/usr/include/c++/9/bits/shared_ptr_base.h ****     inline void
 320:/usr/include/c++/9/bits/shared_ptr_base.h ****     _Sp_counted_base<_S_single>::_M_weak_add_ref() noexcept
 321:/usr/include/c++/9/bits/shared_ptr_base.h ****     { ++_M_weak_count; }
 322:/usr/include/c++/9/bits/shared_ptr_base.h **** 
 323:/usr/include/c++/9/bits/shared_ptr_base.h ****   template<>
 324:/usr/include/c++/9/bits/shared_ptr_base.h ****     inline void
 325:/usr/include/c++/9/bits/shared_ptr_base.h ****     _Sp_counted_base<_S_single>::_M_weak_release() noexcept
 326:/usr/include/c++/9/bits/shared_ptr_base.h ****     {
 327:/usr/include/c++/9/bits/shared_ptr_base.h ****       if (--_M_weak_count == 0)
 328:/usr/include/c++/9/bits/shared_ptr_base.h ****         _M_destroy();
 329:/usr/include/c++/9/bits/shared_ptr_base.h ****     }
 330:/usr/include/c++/9/bits/shared_ptr_base.h **** 
 331:/usr/include/c++/9/bits/shared_ptr_base.h ****   template<>
 332:/usr/include/c++/9/bits/shared_ptr_base.h ****     inline long
 333:/usr/include/c++/9/bits/shared_ptr_base.h ****     _Sp_counted_base<_S_single>::_M_get_use_count() const noexcept
 334:/usr/include/c++/9/bits/shared_ptr_base.h ****     { return _M_use_count; }
 335:/usr/include/c++/9/bits/shared_ptr_base.h **** 
 336:/usr/include/c++/9/bits/shared_ptr_base.h **** 
 337:/usr/include/c++/9/bits/shared_ptr_base.h ****   // Forward declarations.
 338:/usr/include/c++/9/bits/shared_ptr_base.h ****   template<typename _Tp, _Lock_policy _Lp = __default_lock_policy>
 339:/usr/include/c++/9/bits/shared_ptr_base.h ****     class __shared_ptr;
 340:/usr/include/c++/9/bits/shared_ptr_base.h **** 
 341:/usr/include/c++/9/bits/shared_ptr_base.h ****   template<typename _Tp, _Lock_policy _Lp = __default_lock_policy>
 342:/usr/include/c++/9/bits/shared_ptr_base.h ****     class __weak_ptr;
 343:/usr/include/c++/9/bits/shared_ptr_base.h **** 
 344:/usr/include/c++/9/bits/shared_ptr_base.h ****   template<typename _Tp, _Lock_policy _Lp = __default_lock_policy>
 345:/usr/include/c++/9/bits/shared_ptr_base.h ****     class __enable_shared_from_this;
 346:/usr/include/c++/9/bits/shared_ptr_base.h **** 
 347:/usr/include/c++/9/bits/shared_ptr_base.h ****   template<typename _Tp>
 348:/usr/include/c++/9/bits/shared_ptr_base.h ****     class shared_ptr;
 349:/usr/include/c++/9/bits/shared_ptr_base.h **** 
 350:/usr/include/c++/9/bits/shared_ptr_base.h ****   template<typename _Tp>
 351:/usr/include/c++/9/bits/shared_ptr_base.h ****     class weak_ptr;
 352:/usr/include/c++/9/bits/shared_ptr_base.h **** 
 353:/usr/include/c++/9/bits/shared_ptr_base.h ****   template<typename _Tp>
 354:/usr/include/c++/9/bits/shared_ptr_base.h ****     struct owner_less;
 355:/usr/include/c++/9/bits/shared_ptr_base.h **** 
 356:/usr/include/c++/9/bits/shared_ptr_base.h ****   template<typename _Tp>
 357:/usr/include/c++/9/bits/shared_ptr_base.h ****     class enable_shared_from_this;
 358:/usr/include/c++/9/bits/shared_ptr_base.h **** 
 359:/usr/include/c++/9/bits/shared_ptr_base.h ****   template<_Lock_policy _Lp = __default_lock_policy>
 360:/usr/include/c++/9/bits/shared_ptr_base.h ****     class __weak_count;
 361:/usr/include/c++/9/bits/shared_ptr_base.h **** 
 362:/usr/include/c++/9/bits/shared_ptr_base.h ****   template<_Lock_policy _Lp = __default_lock_policy>
 363:/usr/include/c++/9/bits/shared_ptr_base.h ****     class __shared_count;
 364:/usr/include/c++/9/bits/shared_ptr_base.h **** 
 365:/usr/include/c++/9/bits/shared_ptr_base.h **** 
 366:/usr/include/c++/9/bits/shared_ptr_base.h ****   // Counted ptr with no deleter or allocator support
 367:/usr/include/c++/9/bits/shared_ptr_base.h ****   template<typename _Ptr, _Lock_policy _Lp>
 368:/usr/include/c++/9/bits/shared_ptr_base.h ****     class _Sp_counted_ptr final : public _Sp_counted_base<_Lp>
 369:/usr/include/c++/9/bits/shared_ptr_base.h ****     {
 370:/usr/include/c++/9/bits/shared_ptr_base.h ****     public:
 371:/usr/include/c++/9/bits/shared_ptr_base.h ****       explicit
 372:/usr/include/c++/9/bits/shared_ptr_base.h ****       _Sp_counted_ptr(_Ptr __p) noexcept
 373:/usr/include/c++/9/bits/shared_ptr_base.h ****       : _M_ptr(__p) { }
 374:/usr/include/c++/9/bits/shared_ptr_base.h **** 
 375:/usr/include/c++/9/bits/shared_ptr_base.h ****       virtual void
 376:/usr/include/c++/9/bits/shared_ptr_base.h ****       _M_dispose() noexcept
 377:/usr/include/c++/9/bits/shared_ptr_base.h ****       { delete _M_ptr; }
 378:/usr/include/c++/9/bits/shared_ptr_base.h **** 
 379:/usr/include/c++/9/bits/shared_ptr_base.h ****       virtual void
 380:/usr/include/c++/9/bits/shared_ptr_base.h ****       _M_destroy() noexcept
 381:/usr/include/c++/9/bits/shared_ptr_base.h ****       { delete this; }
 382:/usr/include/c++/9/bits/shared_ptr_base.h **** 
 383:/usr/include/c++/9/bits/shared_ptr_base.h ****       virtual void*
 384:/usr/include/c++/9/bits/shared_ptr_base.h ****       _M_get_deleter(const std::type_info&) noexcept
 385:/usr/include/c++/9/bits/shared_ptr_base.h ****       { return nullptr; }
 386:/usr/include/c++/9/bits/shared_ptr_base.h **** 
 387:/usr/include/c++/9/bits/shared_ptr_base.h ****       _Sp_counted_ptr(const _Sp_counted_ptr&) = delete;
 388:/usr/include/c++/9/bits/shared_ptr_base.h ****       _Sp_counted_ptr& operator=(const _Sp_counted_ptr&) = delete;
 389:/usr/include/c++/9/bits/shared_ptr_base.h **** 
 390:/usr/include/c++/9/bits/shared_ptr_base.h ****     private:
 391:/usr/include/c++/9/bits/shared_ptr_base.h ****       _Ptr             _M_ptr;
 392:/usr/include/c++/9/bits/shared_ptr_base.h ****     };
 393:/usr/include/c++/9/bits/shared_ptr_base.h **** 
 394:/usr/include/c++/9/bits/shared_ptr_base.h ****   template<>
 395:/usr/include/c++/9/bits/shared_ptr_base.h ****     inline void
 396:/usr/include/c++/9/bits/shared_ptr_base.h ****     _Sp_counted_ptr<nullptr_t, _S_single>::_M_dispose() noexcept { }
 397:/usr/include/c++/9/bits/shared_ptr_base.h **** 
 398:/usr/include/c++/9/bits/shared_ptr_base.h ****   template<>
 399:/usr/include/c++/9/bits/shared_ptr_base.h ****     inline void
 400:/usr/include/c++/9/bits/shared_ptr_base.h ****     _Sp_counted_ptr<nullptr_t, _S_mutex>::_M_dispose() noexcept { }
 401:/usr/include/c++/9/bits/shared_ptr_base.h **** 
 402:/usr/include/c++/9/bits/shared_ptr_base.h ****   template<>
 403:/usr/include/c++/9/bits/shared_ptr_base.h ****     inline void
 404:/usr/include/c++/9/bits/shared_ptr_base.h ****     _Sp_counted_ptr<nullptr_t, _S_atomic>::_M_dispose() noexcept { }
 405:/usr/include/c++/9/bits/shared_ptr_base.h **** 
 406:/usr/include/c++/9/bits/shared_ptr_base.h ****   template<int _Nm, typename _Tp,
 407:/usr/include/c++/9/bits/shared_ptr_base.h **** 	   bool __use_ebo = !__is_final(_Tp) && __is_empty(_Tp)>
 408:/usr/include/c++/9/bits/shared_ptr_base.h ****     struct _Sp_ebo_helper;
 409:/usr/include/c++/9/bits/shared_ptr_base.h **** 
 410:/usr/include/c++/9/bits/shared_ptr_base.h ****   /// Specialization using EBO.
 411:/usr/include/c++/9/bits/shared_ptr_base.h ****   template<int _Nm, typename _Tp>
 412:/usr/include/c++/9/bits/shared_ptr_base.h ****     struct _Sp_ebo_helper<_Nm, _Tp, true> : private _Tp
 413:/usr/include/c++/9/bits/shared_ptr_base.h ****     {
 414:/usr/include/c++/9/bits/shared_ptr_base.h ****       explicit _Sp_ebo_helper(const _Tp& __tp) : _Tp(__tp) { }
 415:/usr/include/c++/9/bits/shared_ptr_base.h ****       explicit _Sp_ebo_helper(_Tp&& __tp) : _Tp(std::move(__tp)) { }
 416:/usr/include/c++/9/bits/shared_ptr_base.h **** 
 417:/usr/include/c++/9/bits/shared_ptr_base.h ****       static _Tp&
 418:/usr/include/c++/9/bits/shared_ptr_base.h ****       _S_get(_Sp_ebo_helper& __eboh) { return static_cast<_Tp&>(__eboh); }
 419:/usr/include/c++/9/bits/shared_ptr_base.h ****     };
 420:/usr/include/c++/9/bits/shared_ptr_base.h **** 
 421:/usr/include/c++/9/bits/shared_ptr_base.h ****   /// Specialization not using EBO.
 422:/usr/include/c++/9/bits/shared_ptr_base.h ****   template<int _Nm, typename _Tp>
 423:/usr/include/c++/9/bits/shared_ptr_base.h ****     struct _Sp_ebo_helper<_Nm, _Tp, false>
 424:/usr/include/c++/9/bits/shared_ptr_base.h ****     {
 425:/usr/include/c++/9/bits/shared_ptr_base.h ****       explicit _Sp_ebo_helper(const _Tp& __tp) : _M_tp(__tp) { }
 426:/usr/include/c++/9/bits/shared_ptr_base.h ****       explicit _Sp_ebo_helper(_Tp&& __tp) : _M_tp(std::move(__tp)) { }
 427:/usr/include/c++/9/bits/shared_ptr_base.h **** 
 428:/usr/include/c++/9/bits/shared_ptr_base.h ****       static _Tp&
 429:/usr/include/c++/9/bits/shared_ptr_base.h ****       _S_get(_Sp_ebo_helper& __eboh)
 430:/usr/include/c++/9/bits/shared_ptr_base.h ****       { return __eboh._M_tp; }
 431:/usr/include/c++/9/bits/shared_ptr_base.h **** 
 432:/usr/include/c++/9/bits/shared_ptr_base.h ****     private:
 433:/usr/include/c++/9/bits/shared_ptr_base.h ****       _Tp _M_tp;
 434:/usr/include/c++/9/bits/shared_ptr_base.h ****     };
 435:/usr/include/c++/9/bits/shared_ptr_base.h **** 
 436:/usr/include/c++/9/bits/shared_ptr_base.h ****   // Support for custom deleter and/or allocator
 437:/usr/include/c++/9/bits/shared_ptr_base.h ****   template<typename _Ptr, typename _Deleter, typename _Alloc, _Lock_policy _Lp>
 438:/usr/include/c++/9/bits/shared_ptr_base.h ****     class _Sp_counted_deleter final : public _Sp_counted_base<_Lp>
 439:/usr/include/c++/9/bits/shared_ptr_base.h ****     {
 440:/usr/include/c++/9/bits/shared_ptr_base.h ****       class _Impl : _Sp_ebo_helper<0, _Deleter>, _Sp_ebo_helper<1, _Alloc>
 441:/usr/include/c++/9/bits/shared_ptr_base.h ****       {
 442:/usr/include/c++/9/bits/shared_ptr_base.h **** 	typedef _Sp_ebo_helper<0, _Deleter>	_Del_base;
 443:/usr/include/c++/9/bits/shared_ptr_base.h **** 	typedef _Sp_ebo_helper<1, _Alloc>	_Alloc_base;
 444:/usr/include/c++/9/bits/shared_ptr_base.h **** 
 445:/usr/include/c++/9/bits/shared_ptr_base.h ****       public:
 446:/usr/include/c++/9/bits/shared_ptr_base.h **** 	_Impl(_Ptr __p, _Deleter __d, const _Alloc& __a) noexcept
 447:/usr/include/c++/9/bits/shared_ptr_base.h **** 	: _M_ptr(__p), _Del_base(std::move(__d)), _Alloc_base(__a)
 448:/usr/include/c++/9/bits/shared_ptr_base.h **** 	{ }
 449:/usr/include/c++/9/bits/shared_ptr_base.h **** 
 450:/usr/include/c++/9/bits/shared_ptr_base.h **** 	_Deleter& _M_del() noexcept { return _Del_base::_S_get(*this); }
 451:/usr/include/c++/9/bits/shared_ptr_base.h **** 	_Alloc& _M_alloc() noexcept { return _Alloc_base::_S_get(*this); }
 452:/usr/include/c++/9/bits/shared_ptr_base.h **** 
 453:/usr/include/c++/9/bits/shared_ptr_base.h **** 	_Ptr _M_ptr;
 454:/usr/include/c++/9/bits/shared_ptr_base.h ****       };
 455:/usr/include/c++/9/bits/shared_ptr_base.h **** 
 456:/usr/include/c++/9/bits/shared_ptr_base.h ****     public:
 457:/usr/include/c++/9/bits/shared_ptr_base.h ****       using __allocator_type = __alloc_rebind<_Alloc, _Sp_counted_deleter>;
 458:/usr/include/c++/9/bits/shared_ptr_base.h **** 
 459:/usr/include/c++/9/bits/shared_ptr_base.h ****       // __d(__p) must not throw.
 460:/usr/include/c++/9/bits/shared_ptr_base.h ****       _Sp_counted_deleter(_Ptr __p, _Deleter __d) noexcept
 461:/usr/include/c++/9/bits/shared_ptr_base.h ****       : _M_impl(__p, std::move(__d), _Alloc()) { }
 462:/usr/include/c++/9/bits/shared_ptr_base.h **** 
 463:/usr/include/c++/9/bits/shared_ptr_base.h ****       // __d(__p) must not throw.
 464:/usr/include/c++/9/bits/shared_ptr_base.h ****       _Sp_counted_deleter(_Ptr __p, _Deleter __d, const _Alloc& __a) noexcept
 465:/usr/include/c++/9/bits/shared_ptr_base.h ****       : _M_impl(__p, std::move(__d), __a) { }
 466:/usr/include/c++/9/bits/shared_ptr_base.h **** 
 467:/usr/include/c++/9/bits/shared_ptr_base.h ****       ~_Sp_counted_deleter() noexcept { }
 468:/usr/include/c++/9/bits/shared_ptr_base.h **** 
 469:/usr/include/c++/9/bits/shared_ptr_base.h ****       virtual void
 470:/usr/include/c++/9/bits/shared_ptr_base.h ****       _M_dispose() noexcept
 471:/usr/include/c++/9/bits/shared_ptr_base.h ****       { _M_impl._M_del()(_M_impl._M_ptr); }
 472:/usr/include/c++/9/bits/shared_ptr_base.h **** 
 473:/usr/include/c++/9/bits/shared_ptr_base.h ****       virtual void
 474:/usr/include/c++/9/bits/shared_ptr_base.h ****       _M_destroy() noexcept
 475:/usr/include/c++/9/bits/shared_ptr_base.h ****       {
 476:/usr/include/c++/9/bits/shared_ptr_base.h **** 	__allocator_type __a(_M_impl._M_alloc());
 477:/usr/include/c++/9/bits/shared_ptr_base.h **** 	__allocated_ptr<__allocator_type> __guard_ptr{ __a, this };
 478:/usr/include/c++/9/bits/shared_ptr_base.h **** 	this->~_Sp_counted_deleter();
 479:/usr/include/c++/9/bits/shared_ptr_base.h ****       }
 480:/usr/include/c++/9/bits/shared_ptr_base.h **** 
 481:/usr/include/c++/9/bits/shared_ptr_base.h ****       virtual void*
 482:/usr/include/c++/9/bits/shared_ptr_base.h ****       _M_get_deleter(const std::type_info& __ti) noexcept
 483:/usr/include/c++/9/bits/shared_ptr_base.h ****       {
 484:/usr/include/c++/9/bits/shared_ptr_base.h **** #if __cpp_rtti
 485:/usr/include/c++/9/bits/shared_ptr_base.h **** 	// _GLIBCXX_RESOLVE_LIB_DEFECTS
 486:/usr/include/c++/9/bits/shared_ptr_base.h **** 	// 2400. shared_ptr's get_deleter() should use addressof()
 487:/usr/include/c++/9/bits/shared_ptr_base.h ****         return __ti == typeid(_Deleter)
 488:/usr/include/c++/9/bits/shared_ptr_base.h **** 	  ? std::__addressof(_M_impl._M_del())
 489:/usr/include/c++/9/bits/shared_ptr_base.h **** 	  : nullptr;
 490:/usr/include/c++/9/bits/shared_ptr_base.h **** #else
 491:/usr/include/c++/9/bits/shared_ptr_base.h ****         return nullptr;
 492:/usr/include/c++/9/bits/shared_ptr_base.h **** #endif
 493:/usr/include/c++/9/bits/shared_ptr_base.h ****       }
 494:/usr/include/c++/9/bits/shared_ptr_base.h **** 
 495:/usr/include/c++/9/bits/shared_ptr_base.h ****     private:
 496:/usr/include/c++/9/bits/shared_ptr_base.h ****       _Impl _M_impl;
 497:/usr/include/c++/9/bits/shared_ptr_base.h ****     };
 498:/usr/include/c++/9/bits/shared_ptr_base.h **** 
 499:/usr/include/c++/9/bits/shared_ptr_base.h ****   // helpers for make_shared / allocate_shared
 500:/usr/include/c++/9/bits/shared_ptr_base.h **** 
 501:/usr/include/c++/9/bits/shared_ptr_base.h ****   struct _Sp_make_shared_tag
 502:/usr/include/c++/9/bits/shared_ptr_base.h ****   {
 503:/usr/include/c++/9/bits/shared_ptr_base.h ****   private:
 504:/usr/include/c++/9/bits/shared_ptr_base.h ****     template<typename _Tp, typename _Alloc, _Lock_policy _Lp>
 505:/usr/include/c++/9/bits/shared_ptr_base.h ****       friend class _Sp_counted_ptr_inplace;
 506:/usr/include/c++/9/bits/shared_ptr_base.h **** 
 507:/usr/include/c++/9/bits/shared_ptr_base.h ****     static const type_info&
 508:/usr/include/c++/9/bits/shared_ptr_base.h ****     _S_ti() noexcept _GLIBCXX_VISIBILITY(default)
 467              		.loc 5 508 5
 468              		.cfi_startproc
 469 0000 F30F1EFA 		endbr64	
 470 0004 55       		pushq	%rbp	#
 471              		.cfi_def_cfa_offset 16
 472              		.cfi_offset 6, -16
 473 0005 4889E5   		movq	%rsp, %rbp	#,
 474              		.cfi_def_cfa_register 6
 475              	# /usr/include/c++/9/bits/shared_ptr_base.h:511:       return reinterpret_cast<const type_info&>(__
 509:/usr/include/c++/9/bits/shared_ptr_base.h ****     {
 510:/usr/include/c++/9/bits/shared_ptr_base.h ****       alignas(type_info) static constexpr char __tag[sizeof(type_info)] = { };
 511:/usr/include/c++/9/bits/shared_ptr_base.h ****       return reinterpret_cast<const type_info&>(__tag);
 476              		.loc 5 511 54
 477 0008 488D0500 		leaq	_ZZNSt19_Sp_make_shared_tag5_S_tiEvE5__tag(%rip), %rax	#, _1
 477      000000
 478              	# /usr/include/c++/9/bits/shared_ptr_base.h:512:     }
 512:/usr/include/c++/9/bits/shared_ptr_base.h ****     }
 479              		.loc 5 512 5
 480 000f 5D       		popq	%rbp	#
 481              		.cfi_def_cfa 7, 8
 482 0010 C3       		ret	
 483              		.cfi_endproc
 484              	.LFE2063:
 486              		.section	.text._ZN7VisitorC2Ev,"axG",@progbits,_ZN7VisitorC5Ev,comdat
 487              		.align 2
 488              		.weak	_ZN7VisitorC2Ev
 490              	_ZN7VisitorC2Ev:
 491              	.LFB2419:
 492              		.file 6 "test.cpp"
   1:test.cpp      **** #include <iostream>
   2:test.cpp      **** #include <memory>
   3:test.cpp      **** 
   4:test.cpp      **** template<typename T>
   5:test.cpp      **** using spt = std::shared_ptr<T>;
   6:test.cpp      **** 
   7:test.cpp      **** struct Core;
   8:test.cpp      **** struct Complex;
   9:test.cpp      **** 
  10:test.cpp      **** using sCore = spt<Core>;
  11:test.cpp      **** using sComp = spt<Complex>;
  12:test.cpp      **** 
  13:test.cpp      **** struct Visitor{
  14:test.cpp      **** 	Visitor(){}
 493              		.loc 6 14 2
 494              		.cfi_startproc
 495 0000 F30F1EFA 		endbr64	
 496 0004 55       		pushq	%rbp	#
 497              		.cfi_def_cfa_offset 16
 498              		.cfi_offset 6, -16
 499 0005 4889E5   		movq	%rsp, %rbp	#,
 500              		.cfi_def_cfa_register 6
 501 0008 48897DF8 		movq	%rdi, -8(%rbp)	# this, this
 502              	.LBB2:
 503              	# test.cpp:14: 	Visitor(){}
 504              		.loc 6 14 11
 505 000c 488D1500 		leaq	16+_ZTV7Visitor(%rip), %rdx	#, _1
 505      000000
 506 0013 488B45F8 		movq	-8(%rbp), %rax	# this, tmp83
 507 0017 488910   		movq	%rdx, (%rax)	# _1, this_3(D)->_vptr.Visitor
 508              	.LBE2:
 509              	# test.cpp:14: 	Visitor(){}
 510              		.loc 6 14 12
 511 001a 90       		nop	
 512 001b 5D       		popq	%rbp	#
 513              		.cfi_def_cfa 7, 8
 514 001c C3       		ret	
 515              		.cfi_endproc
 516              	.LFE2419:
 518              		.weak	_ZN7VisitorC1Ev
 519              		.set	_ZN7VisitorC1Ev,_ZN7VisitorC2Ev
 520              		.section	.text._ZN7VisitorD2Ev,"axG",@progbits,_ZN7VisitorD5Ev,comdat
 521              		.align 2
 522              		.weak	_ZN7VisitorD2Ev
 524              	_ZN7VisitorD2Ev:
 525              	.LFB2422:
  15:test.cpp      **** 	virtual ~Visitor(){}
 526              		.loc 6 15 10
 527              		.cfi_startproc
 528 0000 F30F1EFA 		endbr64	
 529 0004 55       		pushq	%rbp	#
 530              		.cfi_def_cfa_offset 16
 531              		.cfi_offset 6, -16
 532 0005 4889E5   		movq	%rsp, %rbp	#,
 533              		.cfi_def_cfa_register 6
 534 0008 48897DF8 		movq	%rdi, -8(%rbp)	# this, this
 535              	.LBB3:
 536              	# test.cpp:15: 	virtual ~Visitor(){}
 537              		.loc 6 15 20
 538 000c 488D1500 		leaq	16+_ZTV7Visitor(%rip), %rdx	#, _1
 538      000000
 539 0013 488B45F8 		movq	-8(%rbp), %rax	# this, tmp83
 540 0017 488910   		movq	%rdx, (%rax)	# _1, this_3(D)->_vptr.Visitor
 541              	.LBE3:
 542              	# test.cpp:15: 	virtual ~Visitor(){}
 543              		.loc 6 15 21
 544 001a 90       		nop	
 545 001b 5D       		popq	%rbp	#
 546              		.cfi_def_cfa 7, 8
 547 001c C3       		ret	
 548              		.cfi_endproc
 549              	.LFE2422:
 551              		.weak	_ZN7VisitorD1Ev
 552              		.set	_ZN7VisitorD1Ev,_ZN7VisitorD2Ev
 553              		.section	.text._ZN7VisitorD0Ev,"axG",@progbits,_ZN7VisitorD5Ev,comdat
 554              		.align 2
 555              		.weak	_ZN7VisitorD0Ev
 557              	_ZN7VisitorD0Ev:
 558              	.LFB2424:
 559              		.loc 6 15 10
 560              		.cfi_startproc
 561 0000 F30F1EFA 		endbr64	
 562 0004 55       		pushq	%rbp	#
 563              		.cfi_def_cfa_offset 16
 564              		.cfi_offset 6, -16
 565 0005 4889E5   		movq	%rsp, %rbp	#,
 566              		.cfi_def_cfa_register 6
 567 0008 4883EC10 		subq	$16, %rsp	#,
 568 000c 48897DF8 		movq	%rdi, -8(%rbp)	# this, this
 569              	# test.cpp:15: 	virtual ~Visitor(){}
 570              		.loc 6 15 21
 571 0010 488B45F8 		movq	-8(%rbp), %rax	# this, tmp82
 572 0014 4889C7   		movq	%rax, %rdi	# tmp82,
 573 0017 E8000000 		call	_ZN7VisitorD1Ev	#
 573      00
 574 001c 488B45F8 		movq	-8(%rbp), %rax	# this, tmp83
 575 0020 BE080000 		movl	$8, %esi	#,
 575      00
 576 0025 4889C7   		movq	%rax, %rdi	# tmp83,
 577 0028 E8000000 		call	_ZdlPvm@PLT	#
 577      00
 578 002d C9       		leave	
 579              		.cfi_def_cfa 7, 8
 580 002e C3       		ret	
 581              		.cfi_endproc
 582              	.LFE2424:
 584              		.section	.text._ZN4CoreD2Ev,"axG",@progbits,_ZN4CoreD5Ev,comdat
 585              		.align 2
 586              		.weak	_ZN4CoreD2Ev
 588              	_ZN4CoreD2Ev:
 589              	.LFB2426:
  16:test.cpp      **** 	template<typename T>
  17:test.cpp      **** 	sCore add(T t, sCore c2);
  18:test.cpp      **** 	//sCore add(Complex c1, Complex c2);
  19:test.cpp      **** };
  20:test.cpp      **** 
  21:test.cpp      **** using sV = spt<Visitor>;
  22:test.cpp      **** 
  23:test.cpp      **** struct Core{
  24:test.cpp      **** 	//Core(){};
  25:test.cpp      **** 	virtual ~Core(){};
 590              		.loc 6 25 10
 591              		.cfi_startproc
 592 0000 F30F1EFA 		endbr64	
 593 0004 55       		pushq	%rbp	#
 594              		.cfi_def_cfa_offset 16
 595              		.cfi_offset 6, -16
 596 0005 4889E5   		movq	%rsp, %rbp	#,
 597              		.cfi_def_cfa_register 6
 598 0008 48897DF8 		movq	%rdi, -8(%rbp)	# this, this
 599              	.LBB4:
 600              	# test.cpp:25: 	virtual ~Core(){};
 601              		.loc 6 25 17
 602 000c 488D1500 		leaq	16+_ZTV4Core(%rip), %rdx	#, _1
 602      000000
 603 0013 488B45F8 		movq	-8(%rbp), %rax	# this, tmp83
 604 0017 488910   		movq	%rdx, (%rax)	# _1, this_3(D)->_vptr.Core
 605              	.LBE4:
 606              	# test.cpp:25: 	virtual ~Core(){};
 607              		.loc 6 25 18
 608 001a 90       		nop	
 609 001b 5D       		popq	%rbp	#
 610              		.cfi_def_cfa 7, 8
 611 001c C3       		ret	
 612              		.cfi_endproc
 613              	.LFE2426:
 615              		.weak	_ZN4CoreD1Ev
 616              		.set	_ZN4CoreD1Ev,_ZN4CoreD2Ev
 617              		.section	.text._ZN4CoreD0Ev,"axG",@progbits,_ZN4CoreD5Ev,comdat
 618              		.align 2
 619              		.weak	_ZN4CoreD0Ev
 621              	_ZN4CoreD0Ev:
 622              	.LFB2428:
 623              		.loc 6 25 10
 624              		.cfi_startproc
 625 0000 F30F1EFA 		endbr64	
 626 0004 55       		pushq	%rbp	#
 627              		.cfi_def_cfa_offset 16
 628              		.cfi_offset 6, -16
 629 0005 4889E5   		movq	%rsp, %rbp	#,
 630              		.cfi_def_cfa_register 6
 631 0008 4883EC10 		subq	$16, %rsp	#,
 632 000c 48897DF8 		movq	%rdi, -8(%rbp)	# this, this
 633              	# test.cpp:25: 	virtual ~Core(){};
 634              		.loc 6 25 18
 635 0010 488B45F8 		movq	-8(%rbp), %rax	# this, tmp82
 636 0014 4889C7   		movq	%rax, %rdi	# tmp82,
 637 0017 E8000000 		call	_ZN4CoreD1Ev	#
 637      00
 638 001c 488B45F8 		movq	-8(%rbp), %rax	# this, tmp83
 639 0020 BE080000 		movl	$8, %esi	#,
 639      00
 640 0025 4889C7   		movq	%rax, %rdi	# tmp83,
 641 0028 E8000000 		call	_ZdlPvm@PLT	#
 641      00
 642 002d C9       		leave	
 643              		.cfi_def_cfa 7, 8
 644 002e C3       		ret	
 645              		.cfi_endproc
 646              	.LFE2428:
 648              		.section	.text._ZN4CoreC2Ev,"axG",@progbits,_ZN4CoreC5Ev,comdat
 649              		.align 2
 650              		.weak	_ZN4CoreC2Ev
 652              	_ZN4CoreC2Ev:
 653              	.LFB2431:
  23:test.cpp      **** 	//Core(){};
 654              		.loc 6 23 8
 655              		.cfi_startproc
 656 0000 F30F1EFA 		endbr64	
 657 0004 55       		pushq	%rbp	#
 658              		.cfi_def_cfa_offset 16
 659              		.cfi_offset 6, -16
 660 0005 4889E5   		movq	%rsp, %rbp	#,
 661              		.cfi_def_cfa_register 6
 662 0008 48897DF8 		movq	%rdi, -8(%rbp)	# this, this
 663              	.LBB5:
 664              	# test.cpp:23: struct Core{
  23:test.cpp      **** 	//Core(){};
 665              		.loc 6 23 8
 666 000c 488D1500 		leaq	16+_ZTV4Core(%rip), %rdx	#, _1
 666      000000
 667 0013 488B45F8 		movq	-8(%rbp), %rax	# this, tmp83
 668 0017 488910   		movq	%rdx, (%rax)	# _1, this_3(D)->_vptr.Core
 669              	.LBE5:
 670 001a 90       		nop	
 671 001b 5D       		popq	%rbp	#
 672              		.cfi_def_cfa 7, 8
 673 001c C3       		ret	
 674              		.cfi_endproc
 675              	.LFE2431:
 677              		.weak	_ZN4CoreC1Ev
 678              		.set	_ZN4CoreC1Ev,_ZN4CoreC2Ev
 679              		.section	.text._ZN7ComplexD2Ev,"axG",@progbits,_ZN7ComplexD5Ev,comdat
 680              		.align 2
 681              		.weak	_ZN7ComplexD2Ev
 683              	_ZN7ComplexD2Ev:
 684              	.LFB2436:
  26:test.cpp      **** 	virtual void print()=0;
  27:test.cpp      **** 	virtual sCore add(Visitor v, sCore c)=0;
  28:test.cpp      **** 	virtual sCore _add(Complex c)=0;
  29:test.cpp      **** };
  30:test.cpp      **** 
  31:test.cpp      **** 
  32:test.cpp      **** struct Complex: Core{
  33:test.cpp      **** 	double real;
  34:test.cpp      **** 	double imag;
  35:test.cpp      **** 	Complex(){};
  36:test.cpp      **** 	virtual ~Complex(){};
 685              		.loc 6 36 10
 686              		.cfi_startproc
 687 0000 F30F1EFA 		endbr64	
 688 0004 55       		pushq	%rbp	#
 689              		.cfi_def_cfa_offset 16
 690              		.cfi_offset 6, -16
 691 0005 4889E5   		movq	%rsp, %rbp	#,
 692              		.cfi_def_cfa_register 6
 693 0008 4883EC10 		subq	$16, %rsp	#,
 694 000c 48897DF8 		movq	%rdi, -8(%rbp)	# this, this
 695              	.LBB6:
 696              	# test.cpp:36: 	virtual ~Complex(){};
 697              		.loc 6 36 20
 698 0010 488D1500 		leaq	16+_ZTV7Complex(%rip), %rdx	#, _1
 698      000000
 699 0017 488B45F8 		movq	-8(%rbp), %rax	# this, tmp84
 700 001b 488910   		movq	%rdx, (%rax)	# _1, this_4(D)->D.46476._vptr.Core
 701 001e 488B45F8 		movq	-8(%rbp), %rax	# this, _2
 702 0022 4889C7   		movq	%rax, %rdi	# _2,
 703 0025 E8000000 		call	_ZN4CoreD2Ev	#
 703      00
 704              	.LBE6:
 705              	# test.cpp:36: 	virtual ~Complex(){};
 706              		.loc 6 36 21
 707 002a 90       		nop	
 708 002b C9       		leave	
 709              		.cfi_def_cfa 7, 8
 710 002c C3       		ret	
 711              		.cfi_endproc
 712              	.LFE2436:
 714              		.weak	_ZN7ComplexD1Ev
 715              		.set	_ZN7ComplexD1Ev,_ZN7ComplexD2Ev
 716              		.section	.text._ZN7ComplexD0Ev,"axG",@progbits,_ZN7ComplexD5Ev,comdat
 717              		.align 2
 718              		.weak	_ZN7ComplexD0Ev
 720              	_ZN7ComplexD0Ev:
 721              	.LFB2438:
 722              		.loc 6 36 10
 723              		.cfi_startproc
 724 0000 F30F1EFA 		endbr64	
 725 0004 55       		pushq	%rbp	#
 726              		.cfi_def_cfa_offset 16
 727              		.cfi_offset 6, -16
 728 0005 4889E5   		movq	%rsp, %rbp	#,
 729              		.cfi_def_cfa_register 6
 730 0008 4883EC10 		subq	$16, %rsp	#,
 731 000c 48897DF8 		movq	%rdi, -8(%rbp)	# this, this
 732              	# test.cpp:36: 	virtual ~Complex(){};
 733              		.loc 6 36 21
 734 0010 488B45F8 		movq	-8(%rbp), %rax	# this, tmp82
 735 0014 4889C7   		movq	%rax, %rdi	# tmp82,
 736 0017 E8000000 		call	_ZN7ComplexD1Ev	#
 736      00
 737 001c 488B45F8 		movq	-8(%rbp), %rax	# this, tmp83
 738 0020 BE180000 		movl	$24, %esi	#,
 738      00
 739 0025 4889C7   		movq	%rax, %rdi	# tmp83,
 740 0028 E8000000 		call	_ZdlPvm@PLT	#
 740      00
 741 002d C9       		leave	
 742              		.cfi_def_cfa 7, 8
 743 002e C3       		ret	
 744              		.cfi_endproc
 745              	.LFE2438:
 747              		.section	.text._ZN7ComplexC2Edd,"axG",@progbits,_ZN7ComplexC5Edd,comdat
 748              		.align 2
 749              		.weak	_ZN7ComplexC2Edd
 751              	_ZN7ComplexC2Edd:
 752              	.LFB2440:
  37:test.cpp      **** 	Complex(double _real, double _imag=0.0){
 753              		.loc 6 37 2
 754              		.cfi_startproc
 755 0000 F30F1EFA 		endbr64	
 756 0004 55       		pushq	%rbp	#
 757              		.cfi_def_cfa_offset 16
 758              		.cfi_offset 6, -16
 759 0005 4889E5   		movq	%rsp, %rbp	#,
 760              		.cfi_def_cfa_register 6
 761 0008 4883EC20 		subq	$32, %rsp	#,
 762 000c 48897DF8 		movq	%rdi, -8(%rbp)	# this, this
 763 0010 F20F1145 		movsd	%xmm0, -16(%rbp)	# _real, _real
 763      F0
 764 0015 F20F114D 		movsd	%xmm1, -24(%rbp)	# _imag, _imag
 764      E8
 765              	.LBB7:
 766              	# test.cpp:37: 	Complex(double _real, double _imag=0.0){
 767              		.loc 6 37 41
 768 001a 488B45F8 		movq	-8(%rbp), %rax	# this, _1
 769 001e 4889C7   		movq	%rax, %rdi	# _1,
 770 0021 E8000000 		call	_ZN4CoreC2Ev	#
 770      00
 771 0026 488D1500 		leaq	16+_ZTV7Complex(%rip), %rdx	#, _2
 771      000000
 772 002d 488B45F8 		movq	-8(%rbp), %rax	# this, tmp85
 773 0031 488910   		movq	%rdx, (%rax)	# _2, this_5(D)->D.46476._vptr.Core
 774              	# test.cpp:38: 		real = _real;
  38:test.cpp      **** 		real = _real;
 775              		.loc 6 38 8
 776 0034 488B45F8 		movq	-8(%rbp), %rax	# this, tmp86
 777 0038 F20F1045 		movsd	-16(%rbp), %xmm0	# _real, tmp87
 777      F0
 778 003d F20F1140 		movsd	%xmm0, 8(%rax)	# tmp87, this_5(D)->real
 778      08
 779              	# test.cpp:39: 		imag = _imag;
  39:test.cpp      **** 		imag = _imag;
 780              		.loc 6 39 8
 781 0042 488B45F8 		movq	-8(%rbp), %rax	# this, tmp88
 782 0046 F20F1045 		movsd	-24(%rbp), %xmm0	# _imag, tmp89
 782      E8
 783 004b F20F1140 		movsd	%xmm0, 16(%rax)	# tmp89, this_5(D)->imag
 783      10
 784              	.LBE7:
 785              	# test.cpp:40: 	};
  40:test.cpp      **** 	};
 786              		.loc 6 40 2
 787 0050 90       		nop	
 788 0051 C9       		leave	
 789              		.cfi_def_cfa 7, 8
 790 0052 C3       		ret	
 791              		.cfi_endproc
 792              	.LFE2440:
 794              		.weak	_ZN7ComplexC1Edd
 795              		.set	_ZN7ComplexC1Edd,_ZN7ComplexC2Edd
 796              		.section	.text._ZN4CoreC2ERKS_,"axG",@progbits,_ZN4CoreC5ERKS_,comdat
 797              		.align 2
 798              		.weak	_ZN4CoreC2ERKS_
 800              	_ZN4CoreC2ERKS_:
 801              	.LFB2445:
  23:test.cpp      **** 	//Core(){};
 802              		.loc 6 23 8
 803              		.cfi_startproc
 804 0000 F30F1EFA 		endbr64	
 805 0004 55       		pushq	%rbp	#
 806              		.cfi_def_cfa_offset 16
 807              		.cfi_offset 6, -16
 808 0005 4889E5   		movq	%rsp, %rbp	#,
 809              		.cfi_def_cfa_register 6
 810 0008 48897DF8 		movq	%rdi, -8(%rbp)	# this, this
 811 000c 488975F0 		movq	%rsi, -16(%rbp)	# D.46497, D.46497
 812              	.LBB8:
 813              	# test.cpp:23: struct Core{
  23:test.cpp      **** 	//Core(){};
 814              		.loc 6 23 8
 815 0010 488D1500 		leaq	16+_ZTV4Core(%rip), %rdx	#, _1
 815      000000
 816 0017 488B45F8 		movq	-8(%rbp), %rax	# this, tmp83
 817 001b 488910   		movq	%rdx, (%rax)	# _1, this_3(D)->_vptr.Core
 818              	.LBE8:
 819 001e 90       		nop	
 820 001f 5D       		popq	%rbp	#
 821              		.cfi_def_cfa 7, 8
 822 0020 C3       		ret	
 823              		.cfi_endproc
 824              	.LFE2445:
 826              		.weak	_ZN4CoreC1ERKS_
 827              		.set	_ZN4CoreC1ERKS_,_ZN4CoreC2ERKS_
 828              		.section	.text._ZN7ComplexC2ERKS_,"axG",@progbits,_ZN7ComplexC5ERKS_,comdat
 829              		.align 2
 830              		.weak	_ZN7ComplexC2ERKS_
 832              	_ZN7ComplexC2ERKS_:
 833              	.LFB2447:
  32:test.cpp      **** 	double real;
 834              		.loc 6 32 8
 835              		.cfi_startproc
 836 0000 F30F1EFA 		endbr64	
 837 0004 55       		pushq	%rbp	#
 838              		.cfi_def_cfa_offset 16
 839              		.cfi_offset 6, -16
 840 0005 4889E5   		movq	%rsp, %rbp	#,
 841              		.cfi_def_cfa_register 6
 842 0008 4883EC10 		subq	$16, %rsp	#,
 843 000c 48897DF8 		movq	%rdi, -8(%rbp)	# this, this
 844 0010 488975F0 		movq	%rsi, -16(%rbp)	# D.47984, D.47984
 845              	.LBB9:
 846              	# test.cpp:32: struct Complex: Core{
  32:test.cpp      **** 	double real;
 847              		.loc 6 32 8
 848 0014 488B45F8 		movq	-8(%rbp), %rax	# this, _1
 849 0018 488B55F0 		movq	-16(%rbp), %rdx	# D.47984, _2
 850 001c 4889D6   		movq	%rdx, %rsi	# _2,
 851 001f 4889C7   		movq	%rax, %rdi	# _1,
 852 0022 E8000000 		call	_ZN4CoreC2ERKS_	#
 852      00
 853 0027 488D1500 		leaq	16+_ZTV7Complex(%rip), %rdx	#, _3
 853      000000
 854 002e 488B45F8 		movq	-8(%rbp), %rax	# this, tmp88
 855 0032 488910   		movq	%rdx, (%rax)	# _3, this_8(D)->D.46476._vptr.Core
 856 0035 488B45F0 		movq	-16(%rbp), %rax	# D.47984, tmp89
 857 0039 F20F1040 		movsd	8(%rax), %xmm0	# _10(D)->real, _4
 857      08
 858 003e 488B45F8 		movq	-8(%rbp), %rax	# this, tmp90
 859 0042 F20F1140 		movsd	%xmm0, 8(%rax)	# _4, this_8(D)->real
 859      08
 860 0047 488B45F0 		movq	-16(%rbp), %rax	# D.47984, tmp91
 861 004b F20F1040 		movsd	16(%rax), %xmm0	# _10(D)->imag, _5
 861      10
 862 0050 488B45F8 		movq	-8(%rbp), %rax	# this, tmp92
 863 0054 F20F1140 		movsd	%xmm0, 16(%rax)	# _5, this_8(D)->imag
 863      10
 864              	.LBE9:
 865 0059 90       		nop	
 866 005a C9       		leave	
 867              		.cfi_def_cfa 7, 8
 868 005b C3       		ret	
 869              		.cfi_endproc
 870              	.LFE2447:
 872              		.weak	_ZN7ComplexC1ERKS_
 873              		.set	_ZN7ComplexC1ERKS_,_ZN7ComplexC2ERKS_
 874              		.section	.text._ZNSt12__shared_ptrI4CoreLN9__gnu_cxx12_Lock_policyE2EEC2ERKS3_,"axG",@progbits,_ZN
 875              		.align 2
 876              		.weak	_ZNSt12__shared_ptrI4CoreLN9__gnu_cxx12_Lock_policyE2EEC2ERKS3_
 878              	_ZNSt12__shared_ptrI4CoreLN9__gnu_cxx12_Lock_policyE2EEC2ERKS3_:
 879              	.LFB2451:
 513:/usr/include/c++/9/bits/shared_ptr_base.h **** 
 514:/usr/include/c++/9/bits/shared_ptr_base.h ****     static bool _S_eq(const type_info&) noexcept;
 515:/usr/include/c++/9/bits/shared_ptr_base.h ****   };
 516:/usr/include/c++/9/bits/shared_ptr_base.h **** 
 517:/usr/include/c++/9/bits/shared_ptr_base.h ****   template<typename _Alloc>
 518:/usr/include/c++/9/bits/shared_ptr_base.h ****     struct _Sp_alloc_shared_tag
 519:/usr/include/c++/9/bits/shared_ptr_base.h ****     {
 520:/usr/include/c++/9/bits/shared_ptr_base.h ****       const _Alloc& _M_a;
 521:/usr/include/c++/9/bits/shared_ptr_base.h ****     };
 522:/usr/include/c++/9/bits/shared_ptr_base.h **** 
 523:/usr/include/c++/9/bits/shared_ptr_base.h ****   template<typename _Tp, typename _Alloc, _Lock_policy _Lp>
 524:/usr/include/c++/9/bits/shared_ptr_base.h ****     class _Sp_counted_ptr_inplace final : public _Sp_counted_base<_Lp>
 525:/usr/include/c++/9/bits/shared_ptr_base.h ****     {
 526:/usr/include/c++/9/bits/shared_ptr_base.h ****       class _Impl : _Sp_ebo_helper<0, _Alloc>
 527:/usr/include/c++/9/bits/shared_ptr_base.h ****       {
 528:/usr/include/c++/9/bits/shared_ptr_base.h **** 	typedef _Sp_ebo_helper<0, _Alloc>	_A_base;
 529:/usr/include/c++/9/bits/shared_ptr_base.h **** 
 530:/usr/include/c++/9/bits/shared_ptr_base.h ****       public:
 531:/usr/include/c++/9/bits/shared_ptr_base.h **** 	explicit _Impl(_Alloc __a) noexcept : _A_base(__a) { }
 532:/usr/include/c++/9/bits/shared_ptr_base.h **** 
 533:/usr/include/c++/9/bits/shared_ptr_base.h **** 	_Alloc& _M_alloc() noexcept { return _A_base::_S_get(*this); }
 534:/usr/include/c++/9/bits/shared_ptr_base.h **** 
 535:/usr/include/c++/9/bits/shared_ptr_base.h **** 	__gnu_cxx::__aligned_buffer<_Tp> _M_storage;
 536:/usr/include/c++/9/bits/shared_ptr_base.h ****       };
 537:/usr/include/c++/9/bits/shared_ptr_base.h **** 
 538:/usr/include/c++/9/bits/shared_ptr_base.h ****     public:
 539:/usr/include/c++/9/bits/shared_ptr_base.h ****       using __allocator_type = __alloc_rebind<_Alloc, _Sp_counted_ptr_inplace>;
 540:/usr/include/c++/9/bits/shared_ptr_base.h **** 
 541:/usr/include/c++/9/bits/shared_ptr_base.h ****       // Alloc parameter is not a reference so doesn't alias anything in __args
 542:/usr/include/c++/9/bits/shared_ptr_base.h ****       template<typename... _Args>
 543:/usr/include/c++/9/bits/shared_ptr_base.h **** 	_Sp_counted_ptr_inplace(_Alloc __a, _Args&&... __args)
 544:/usr/include/c++/9/bits/shared_ptr_base.h **** 	: _M_impl(__a)
 545:/usr/include/c++/9/bits/shared_ptr_base.h **** 	{
 546:/usr/include/c++/9/bits/shared_ptr_base.h **** 	  // _GLIBCXX_RESOLVE_LIB_DEFECTS
 547:/usr/include/c++/9/bits/shared_ptr_base.h **** 	  // 2070.  allocate_shared should use allocator_traits<A>::construct
 548:/usr/include/c++/9/bits/shared_ptr_base.h **** 	  allocator_traits<_Alloc>::construct(__a, _M_ptr(),
 549:/usr/include/c++/9/bits/shared_ptr_base.h **** 	      std::forward<_Args>(__args)...); // might throw
 550:/usr/include/c++/9/bits/shared_ptr_base.h **** 	}
 551:/usr/include/c++/9/bits/shared_ptr_base.h **** 
 552:/usr/include/c++/9/bits/shared_ptr_base.h ****       ~_Sp_counted_ptr_inplace() noexcept { }
 553:/usr/include/c++/9/bits/shared_ptr_base.h **** 
 554:/usr/include/c++/9/bits/shared_ptr_base.h ****       virtual void
 555:/usr/include/c++/9/bits/shared_ptr_base.h ****       _M_dispose() noexcept
 556:/usr/include/c++/9/bits/shared_ptr_base.h ****       {
 557:/usr/include/c++/9/bits/shared_ptr_base.h **** 	allocator_traits<_Alloc>::destroy(_M_impl._M_alloc(), _M_ptr());
 558:/usr/include/c++/9/bits/shared_ptr_base.h ****       }
 559:/usr/include/c++/9/bits/shared_ptr_base.h **** 
 560:/usr/include/c++/9/bits/shared_ptr_base.h ****       // Override because the allocator needs to know the dynamic type
 561:/usr/include/c++/9/bits/shared_ptr_base.h ****       virtual void
 562:/usr/include/c++/9/bits/shared_ptr_base.h ****       _M_destroy() noexcept
 563:/usr/include/c++/9/bits/shared_ptr_base.h ****       {
 564:/usr/include/c++/9/bits/shared_ptr_base.h **** 	__allocator_type __a(_M_impl._M_alloc());
 565:/usr/include/c++/9/bits/shared_ptr_base.h **** 	__allocated_ptr<__allocator_type> __guard_ptr{ __a, this };
 566:/usr/include/c++/9/bits/shared_ptr_base.h **** 	this->~_Sp_counted_ptr_inplace();
 567:/usr/include/c++/9/bits/shared_ptr_base.h ****       }
 568:/usr/include/c++/9/bits/shared_ptr_base.h **** 
 569:/usr/include/c++/9/bits/shared_ptr_base.h ****     private:
 570:/usr/include/c++/9/bits/shared_ptr_base.h ****       friend class __shared_count<_Lp>; // To be able to call _M_ptr().
 571:/usr/include/c++/9/bits/shared_ptr_base.h **** 
 572:/usr/include/c++/9/bits/shared_ptr_base.h ****       // No longer used, but code compiled against old libstdc++ headers
 573:/usr/include/c++/9/bits/shared_ptr_base.h ****       // might still call it from __shared_ptr ctor to get the pointer out.
 574:/usr/include/c++/9/bits/shared_ptr_base.h ****       virtual void*
 575:/usr/include/c++/9/bits/shared_ptr_base.h ****       _M_get_deleter(const std::type_info& __ti) noexcept override
 576:/usr/include/c++/9/bits/shared_ptr_base.h ****       {
 577:/usr/include/c++/9/bits/shared_ptr_base.h **** 	auto __ptr = const_cast<typename remove_cv<_Tp>::type*>(_M_ptr());
 578:/usr/include/c++/9/bits/shared_ptr_base.h **** 	// Check for the fake type_info first, so we don't try to access it
 579:/usr/include/c++/9/bits/shared_ptr_base.h **** 	// as a real type_info object. Otherwise, check if it's the real
 580:/usr/include/c++/9/bits/shared_ptr_base.h **** 	// type_info for this class. With RTTI enabled we can check directly,
 581:/usr/include/c++/9/bits/shared_ptr_base.h **** 	// or call a library function to do it.
 582:/usr/include/c++/9/bits/shared_ptr_base.h **** 	if (&__ti == &_Sp_make_shared_tag::_S_ti()
 583:/usr/include/c++/9/bits/shared_ptr_base.h **** 	    ||
 584:/usr/include/c++/9/bits/shared_ptr_base.h **** #if __cpp_rtti
 585:/usr/include/c++/9/bits/shared_ptr_base.h **** 	    __ti == typeid(_Sp_make_shared_tag)
 586:/usr/include/c++/9/bits/shared_ptr_base.h **** #else
 587:/usr/include/c++/9/bits/shared_ptr_base.h **** 	    _Sp_make_shared_tag::_S_eq(__ti)
 588:/usr/include/c++/9/bits/shared_ptr_base.h **** #endif
 589:/usr/include/c++/9/bits/shared_ptr_base.h **** 	   )
 590:/usr/include/c++/9/bits/shared_ptr_base.h **** 	  return __ptr;
 591:/usr/include/c++/9/bits/shared_ptr_base.h **** 	return nullptr;
 592:/usr/include/c++/9/bits/shared_ptr_base.h ****       }
 593:/usr/include/c++/9/bits/shared_ptr_base.h **** 
 594:/usr/include/c++/9/bits/shared_ptr_base.h ****       _Tp* _M_ptr() noexcept { return _M_impl._M_storage._M_ptr(); }
 595:/usr/include/c++/9/bits/shared_ptr_base.h **** 
 596:/usr/include/c++/9/bits/shared_ptr_base.h ****       _Impl _M_impl;
 597:/usr/include/c++/9/bits/shared_ptr_base.h ****     };
 598:/usr/include/c++/9/bits/shared_ptr_base.h **** 
 599:/usr/include/c++/9/bits/shared_ptr_base.h ****   // The default deleter for shared_ptr<T[]> and shared_ptr<T[N]>.
 600:/usr/include/c++/9/bits/shared_ptr_base.h ****   struct __sp_array_delete
 601:/usr/include/c++/9/bits/shared_ptr_base.h ****   {
 602:/usr/include/c++/9/bits/shared_ptr_base.h ****     template<typename _Yp>
 603:/usr/include/c++/9/bits/shared_ptr_base.h ****       void operator()(_Yp* __p) const { delete[] __p; }
 604:/usr/include/c++/9/bits/shared_ptr_base.h ****   };
 605:/usr/include/c++/9/bits/shared_ptr_base.h **** 
 606:/usr/include/c++/9/bits/shared_ptr_base.h ****   template<_Lock_policy _Lp>
 607:/usr/include/c++/9/bits/shared_ptr_base.h ****     class __shared_count
 608:/usr/include/c++/9/bits/shared_ptr_base.h ****     {
 609:/usr/include/c++/9/bits/shared_ptr_base.h ****       template<typename _Tp>
 610:/usr/include/c++/9/bits/shared_ptr_base.h **** 	struct __not_alloc_shared_tag { using type = void; };
 611:/usr/include/c++/9/bits/shared_ptr_base.h **** 
 612:/usr/include/c++/9/bits/shared_ptr_base.h ****       template<typename _Tp>
 613:/usr/include/c++/9/bits/shared_ptr_base.h **** 	struct __not_alloc_shared_tag<_Sp_alloc_shared_tag<_Tp>> { };
 614:/usr/include/c++/9/bits/shared_ptr_base.h **** 
 615:/usr/include/c++/9/bits/shared_ptr_base.h ****     public:
 616:/usr/include/c++/9/bits/shared_ptr_base.h ****       constexpr __shared_count() noexcept : _M_pi(0)
 617:/usr/include/c++/9/bits/shared_ptr_base.h ****       { }
 618:/usr/include/c++/9/bits/shared_ptr_base.h **** 
 619:/usr/include/c++/9/bits/shared_ptr_base.h ****       template<typename _Ptr>
 620:/usr/include/c++/9/bits/shared_ptr_base.h ****         explicit
 621:/usr/include/c++/9/bits/shared_ptr_base.h **** 	__shared_count(_Ptr __p) : _M_pi(0)
 622:/usr/include/c++/9/bits/shared_ptr_base.h **** 	{
 623:/usr/include/c++/9/bits/shared_ptr_base.h **** 	  __try
 624:/usr/include/c++/9/bits/shared_ptr_base.h **** 	    {
 625:/usr/include/c++/9/bits/shared_ptr_base.h **** 	      _M_pi = new _Sp_counted_ptr<_Ptr, _Lp>(__p);
 626:/usr/include/c++/9/bits/shared_ptr_base.h **** 	    }
 627:/usr/include/c++/9/bits/shared_ptr_base.h **** 	  __catch(...)
 628:/usr/include/c++/9/bits/shared_ptr_base.h **** 	    {
 629:/usr/include/c++/9/bits/shared_ptr_base.h **** 	      delete __p;
 630:/usr/include/c++/9/bits/shared_ptr_base.h **** 	      __throw_exception_again;
 631:/usr/include/c++/9/bits/shared_ptr_base.h **** 	    }
 632:/usr/include/c++/9/bits/shared_ptr_base.h **** 	}
 633:/usr/include/c++/9/bits/shared_ptr_base.h **** 
 634:/usr/include/c++/9/bits/shared_ptr_base.h ****       template<typename _Ptr>
 635:/usr/include/c++/9/bits/shared_ptr_base.h **** 	__shared_count(_Ptr __p, /* is_array = */ false_type)
 636:/usr/include/c++/9/bits/shared_ptr_base.h **** 	: __shared_count(__p)
 637:/usr/include/c++/9/bits/shared_ptr_base.h **** 	{ }
 638:/usr/include/c++/9/bits/shared_ptr_base.h **** 
 639:/usr/include/c++/9/bits/shared_ptr_base.h ****       template<typename _Ptr>
 640:/usr/include/c++/9/bits/shared_ptr_base.h **** 	__shared_count(_Ptr __p, /* is_array = */ true_type)
 641:/usr/include/c++/9/bits/shared_ptr_base.h **** 	: __shared_count(__p, __sp_array_delete{}, allocator<void>())
 642:/usr/include/c++/9/bits/shared_ptr_base.h **** 	{ }
 643:/usr/include/c++/9/bits/shared_ptr_base.h **** 
 644:/usr/include/c++/9/bits/shared_ptr_base.h ****       template<typename _Ptr, typename _Deleter,
 645:/usr/include/c++/9/bits/shared_ptr_base.h **** 	       typename = typename __not_alloc_shared_tag<_Deleter>::type>
 646:/usr/include/c++/9/bits/shared_ptr_base.h **** 	__shared_count(_Ptr __p, _Deleter __d)
 647:/usr/include/c++/9/bits/shared_ptr_base.h **** 	: __shared_count(__p, std::move(__d), allocator<void>())
 648:/usr/include/c++/9/bits/shared_ptr_base.h **** 	{ }
 649:/usr/include/c++/9/bits/shared_ptr_base.h **** 
 650:/usr/include/c++/9/bits/shared_ptr_base.h ****       template<typename _Ptr, typename _Deleter, typename _Alloc,
 651:/usr/include/c++/9/bits/shared_ptr_base.h **** 	       typename = typename __not_alloc_shared_tag<_Deleter>::type>
 652:/usr/include/c++/9/bits/shared_ptr_base.h **** 	__shared_count(_Ptr __p, _Deleter __d, _Alloc __a) : _M_pi(0)
 653:/usr/include/c++/9/bits/shared_ptr_base.h **** 	{
 654:/usr/include/c++/9/bits/shared_ptr_base.h **** 	  typedef _Sp_counted_deleter<_Ptr, _Deleter, _Alloc, _Lp> _Sp_cd_type;
 655:/usr/include/c++/9/bits/shared_ptr_base.h **** 	  __try
 656:/usr/include/c++/9/bits/shared_ptr_base.h **** 	    {
 657:/usr/include/c++/9/bits/shared_ptr_base.h **** 	      typename _Sp_cd_type::__allocator_type __a2(__a);
 658:/usr/include/c++/9/bits/shared_ptr_base.h **** 	      auto __guard = std::__allocate_guarded(__a2);
 659:/usr/include/c++/9/bits/shared_ptr_base.h **** 	      _Sp_cd_type* __mem = __guard.get();
 660:/usr/include/c++/9/bits/shared_ptr_base.h **** 	      ::new (__mem) _Sp_cd_type(__p, std::move(__d), std::move(__a));
 661:/usr/include/c++/9/bits/shared_ptr_base.h **** 	      _M_pi = __mem;
 662:/usr/include/c++/9/bits/shared_ptr_base.h **** 	      __guard = nullptr;
 663:/usr/include/c++/9/bits/shared_ptr_base.h **** 	    }
 664:/usr/include/c++/9/bits/shared_ptr_base.h **** 	  __catch(...)
 665:/usr/include/c++/9/bits/shared_ptr_base.h **** 	    {
 666:/usr/include/c++/9/bits/shared_ptr_base.h **** 	      __d(__p); // Call _Deleter on __p.
 667:/usr/include/c++/9/bits/shared_ptr_base.h **** 	      __throw_exception_again;
 668:/usr/include/c++/9/bits/shared_ptr_base.h **** 	    }
 669:/usr/include/c++/9/bits/shared_ptr_base.h **** 	}
 670:/usr/include/c++/9/bits/shared_ptr_base.h **** 
 671:/usr/include/c++/9/bits/shared_ptr_base.h ****       template<typename _Tp, typename _Alloc, typename... _Args>
 672:/usr/include/c++/9/bits/shared_ptr_base.h **** 	__shared_count(_Tp*& __p, _Sp_alloc_shared_tag<_Alloc> __a,
 673:/usr/include/c++/9/bits/shared_ptr_base.h **** 		       _Args&&... __args)
 674:/usr/include/c++/9/bits/shared_ptr_base.h **** 	{
 675:/usr/include/c++/9/bits/shared_ptr_base.h **** 	  typedef _Sp_counted_ptr_inplace<_Tp, _Alloc, _Lp> _Sp_cp_type;
 676:/usr/include/c++/9/bits/shared_ptr_base.h **** 	  typename _Sp_cp_type::__allocator_type __a2(__a._M_a);
 677:/usr/include/c++/9/bits/shared_ptr_base.h **** 	  auto __guard = std::__allocate_guarded(__a2);
 678:/usr/include/c++/9/bits/shared_ptr_base.h **** 	  _Sp_cp_type* __mem = __guard.get();
 679:/usr/include/c++/9/bits/shared_ptr_base.h **** 	  auto __pi = ::new (__mem)
 680:/usr/include/c++/9/bits/shared_ptr_base.h **** 	    _Sp_cp_type(__a._M_a, std::forward<_Args>(__args)...);
 681:/usr/include/c++/9/bits/shared_ptr_base.h **** 	  __guard = nullptr;
 682:/usr/include/c++/9/bits/shared_ptr_base.h **** 	  _M_pi = __pi;
 683:/usr/include/c++/9/bits/shared_ptr_base.h **** 	  __p = __pi->_M_ptr();
 684:/usr/include/c++/9/bits/shared_ptr_base.h **** 	}
 685:/usr/include/c++/9/bits/shared_ptr_base.h **** 
 686:/usr/include/c++/9/bits/shared_ptr_base.h **** #if _GLIBCXX_USE_DEPRECATED
 687:/usr/include/c++/9/bits/shared_ptr_base.h **** #pragma GCC diagnostic push
 688:/usr/include/c++/9/bits/shared_ptr_base.h **** #pragma GCC diagnostic ignored "-Wdeprecated-declarations"
 689:/usr/include/c++/9/bits/shared_ptr_base.h ****       // Special case for auto_ptr<_Tp> to provide the strong guarantee.
 690:/usr/include/c++/9/bits/shared_ptr_base.h ****       template<typename _Tp>
 691:/usr/include/c++/9/bits/shared_ptr_base.h ****         explicit
 692:/usr/include/c++/9/bits/shared_ptr_base.h **** 	__shared_count(std::auto_ptr<_Tp>&& __r);
 693:/usr/include/c++/9/bits/shared_ptr_base.h **** #pragma GCC diagnostic pop
 694:/usr/include/c++/9/bits/shared_ptr_base.h **** #endif
 695:/usr/include/c++/9/bits/shared_ptr_base.h **** 
 696:/usr/include/c++/9/bits/shared_ptr_base.h ****       // Special case for unique_ptr<_Tp,_Del> to provide the strong guarantee.
 697:/usr/include/c++/9/bits/shared_ptr_base.h ****       template<typename _Tp, typename _Del>
 698:/usr/include/c++/9/bits/shared_ptr_base.h ****         explicit
 699:/usr/include/c++/9/bits/shared_ptr_base.h **** 	__shared_count(std::unique_ptr<_Tp, _Del>&& __r) : _M_pi(0)
 700:/usr/include/c++/9/bits/shared_ptr_base.h **** 	{
 701:/usr/include/c++/9/bits/shared_ptr_base.h **** 	  // _GLIBCXX_RESOLVE_LIB_DEFECTS
 702:/usr/include/c++/9/bits/shared_ptr_base.h **** 	  // 2415. Inconsistency between unique_ptr and shared_ptr
 703:/usr/include/c++/9/bits/shared_ptr_base.h **** 	  if (__r.get() == nullptr)
 704:/usr/include/c++/9/bits/shared_ptr_base.h **** 	    return;
 705:/usr/include/c++/9/bits/shared_ptr_base.h **** 
 706:/usr/include/c++/9/bits/shared_ptr_base.h **** 	  using _Ptr = typename unique_ptr<_Tp, _Del>::pointer;
 707:/usr/include/c++/9/bits/shared_ptr_base.h **** 	  using _Del2 = typename conditional<is_reference<_Del>::value,
 708:/usr/include/c++/9/bits/shared_ptr_base.h **** 	      reference_wrapper<typename remove_reference<_Del>::type>,
 709:/usr/include/c++/9/bits/shared_ptr_base.h **** 	      _Del>::type;
 710:/usr/include/c++/9/bits/shared_ptr_base.h **** 	  using _Sp_cd_type
 711:/usr/include/c++/9/bits/shared_ptr_base.h **** 	    = _Sp_counted_deleter<_Ptr, _Del2, allocator<void>, _Lp>;
 712:/usr/include/c++/9/bits/shared_ptr_base.h **** 	  using _Alloc = allocator<_Sp_cd_type>;
 713:/usr/include/c++/9/bits/shared_ptr_base.h **** 	  using _Alloc_traits = allocator_traits<_Alloc>;
 714:/usr/include/c++/9/bits/shared_ptr_base.h **** 	  _Alloc __a;
 715:/usr/include/c++/9/bits/shared_ptr_base.h **** 	  _Sp_cd_type* __mem = _Alloc_traits::allocate(__a, 1);
 716:/usr/include/c++/9/bits/shared_ptr_base.h **** 	  _Alloc_traits::construct(__a, __mem, __r.release(),
 717:/usr/include/c++/9/bits/shared_ptr_base.h **** 				   __r.get_deleter());  // non-throwing
 718:/usr/include/c++/9/bits/shared_ptr_base.h **** 	  _M_pi = __mem;
 719:/usr/include/c++/9/bits/shared_ptr_base.h **** 	}
 720:/usr/include/c++/9/bits/shared_ptr_base.h **** 
 721:/usr/include/c++/9/bits/shared_ptr_base.h ****       // Throw bad_weak_ptr when __r._M_get_use_count() == 0.
 722:/usr/include/c++/9/bits/shared_ptr_base.h ****       explicit __shared_count(const __weak_count<_Lp>& __r);
 723:/usr/include/c++/9/bits/shared_ptr_base.h **** 
 724:/usr/include/c++/9/bits/shared_ptr_base.h ****       // Does not throw if __r._M_get_use_count() == 0, caller must check.
 725:/usr/include/c++/9/bits/shared_ptr_base.h ****       explicit __shared_count(const __weak_count<_Lp>& __r, std::nothrow_t);
 726:/usr/include/c++/9/bits/shared_ptr_base.h **** 
 727:/usr/include/c++/9/bits/shared_ptr_base.h ****       ~__shared_count() noexcept
 728:/usr/include/c++/9/bits/shared_ptr_base.h ****       {
 729:/usr/include/c++/9/bits/shared_ptr_base.h **** 	if (_M_pi != nullptr)
 730:/usr/include/c++/9/bits/shared_ptr_base.h **** 	  _M_pi->_M_release();
 731:/usr/include/c++/9/bits/shared_ptr_base.h ****       }
 732:/usr/include/c++/9/bits/shared_ptr_base.h **** 
 733:/usr/include/c++/9/bits/shared_ptr_base.h ****       __shared_count(const __shared_count& __r) noexcept
 734:/usr/include/c++/9/bits/shared_ptr_base.h ****       : _M_pi(__r._M_pi)
 735:/usr/include/c++/9/bits/shared_ptr_base.h ****       {
 736:/usr/include/c++/9/bits/shared_ptr_base.h **** 	if (_M_pi != 0)
 737:/usr/include/c++/9/bits/shared_ptr_base.h **** 	  _M_pi->_M_add_ref_copy();
 738:/usr/include/c++/9/bits/shared_ptr_base.h ****       }
 739:/usr/include/c++/9/bits/shared_ptr_base.h **** 
 740:/usr/include/c++/9/bits/shared_ptr_base.h ****       __shared_count&
 741:/usr/include/c++/9/bits/shared_ptr_base.h ****       operator=(const __shared_count& __r) noexcept
 742:/usr/include/c++/9/bits/shared_ptr_base.h ****       {
 743:/usr/include/c++/9/bits/shared_ptr_base.h **** 	_Sp_counted_base<_Lp>* __tmp = __r._M_pi;
 744:/usr/include/c++/9/bits/shared_ptr_base.h **** 	if (__tmp != _M_pi)
 745:/usr/include/c++/9/bits/shared_ptr_base.h **** 	  {
 746:/usr/include/c++/9/bits/shared_ptr_base.h **** 	    if (__tmp != 0)
 747:/usr/include/c++/9/bits/shared_ptr_base.h **** 	      __tmp->_M_add_ref_copy();
 748:/usr/include/c++/9/bits/shared_ptr_base.h **** 	    if (_M_pi != 0)
 749:/usr/include/c++/9/bits/shared_ptr_base.h **** 	      _M_pi->_M_release();
 750:/usr/include/c++/9/bits/shared_ptr_base.h **** 	    _M_pi = __tmp;
 751:/usr/include/c++/9/bits/shared_ptr_base.h **** 	  }
 752:/usr/include/c++/9/bits/shared_ptr_base.h **** 	return *this;
 753:/usr/include/c++/9/bits/shared_ptr_base.h ****       }
 754:/usr/include/c++/9/bits/shared_ptr_base.h **** 
 755:/usr/include/c++/9/bits/shared_ptr_base.h ****       void
 756:/usr/include/c++/9/bits/shared_ptr_base.h ****       _M_swap(__shared_count& __r) noexcept
 757:/usr/include/c++/9/bits/shared_ptr_base.h ****       {
 758:/usr/include/c++/9/bits/shared_ptr_base.h **** 	_Sp_counted_base<_Lp>* __tmp = __r._M_pi;
 759:/usr/include/c++/9/bits/shared_ptr_base.h **** 	__r._M_pi = _M_pi;
 760:/usr/include/c++/9/bits/shared_ptr_base.h **** 	_M_pi = __tmp;
 761:/usr/include/c++/9/bits/shared_ptr_base.h ****       }
 762:/usr/include/c++/9/bits/shared_ptr_base.h **** 
 763:/usr/include/c++/9/bits/shared_ptr_base.h ****       long
 764:/usr/include/c++/9/bits/shared_ptr_base.h ****       _M_get_use_count() const noexcept
 765:/usr/include/c++/9/bits/shared_ptr_base.h ****       { return _M_pi != 0 ? _M_pi->_M_get_use_count() : 0; }
 766:/usr/include/c++/9/bits/shared_ptr_base.h **** 
 767:/usr/include/c++/9/bits/shared_ptr_base.h ****       bool
 768:/usr/include/c++/9/bits/shared_ptr_base.h ****       _M_unique() const noexcept
 769:/usr/include/c++/9/bits/shared_ptr_base.h ****       { return this->_M_get_use_count() == 1; }
 770:/usr/include/c++/9/bits/shared_ptr_base.h **** 
 771:/usr/include/c++/9/bits/shared_ptr_base.h ****       void*
 772:/usr/include/c++/9/bits/shared_ptr_base.h ****       _M_get_deleter(const std::type_info& __ti) const noexcept
 773:/usr/include/c++/9/bits/shared_ptr_base.h ****       { return _M_pi ? _M_pi->_M_get_deleter(__ti) : nullptr; }
 774:/usr/include/c++/9/bits/shared_ptr_base.h **** 
 775:/usr/include/c++/9/bits/shared_ptr_base.h ****       bool
 776:/usr/include/c++/9/bits/shared_ptr_base.h ****       _M_less(const __shared_count& __rhs) const noexcept
 777:/usr/include/c++/9/bits/shared_ptr_base.h ****       { return std::less<_Sp_counted_base<_Lp>*>()(this->_M_pi, __rhs._M_pi); }
 778:/usr/include/c++/9/bits/shared_ptr_base.h **** 
 779:/usr/include/c++/9/bits/shared_ptr_base.h ****       bool
 780:/usr/include/c++/9/bits/shared_ptr_base.h ****       _M_less(const __weak_count<_Lp>& __rhs) const noexcept
 781:/usr/include/c++/9/bits/shared_ptr_base.h ****       { return std::less<_Sp_counted_base<_Lp>*>()(this->_M_pi, __rhs._M_pi); }
 782:/usr/include/c++/9/bits/shared_ptr_base.h **** 
 783:/usr/include/c++/9/bits/shared_ptr_base.h ****       // Friend function injected into enclosing namespace and found by ADL
 784:/usr/include/c++/9/bits/shared_ptr_base.h ****       friend inline bool
 785:/usr/include/c++/9/bits/shared_ptr_base.h ****       operator==(const __shared_count& __a, const __shared_count& __b) noexcept
 786:/usr/include/c++/9/bits/shared_ptr_base.h ****       { return __a._M_pi == __b._M_pi; }
 787:/usr/include/c++/9/bits/shared_ptr_base.h **** 
 788:/usr/include/c++/9/bits/shared_ptr_base.h ****     private:
 789:/usr/include/c++/9/bits/shared_ptr_base.h ****       friend class __weak_count<_Lp>;
 790:/usr/include/c++/9/bits/shared_ptr_base.h **** 
 791:/usr/include/c++/9/bits/shared_ptr_base.h ****       _Sp_counted_base<_Lp>*  _M_pi;
 792:/usr/include/c++/9/bits/shared_ptr_base.h ****     };
 793:/usr/include/c++/9/bits/shared_ptr_base.h **** 
 794:/usr/include/c++/9/bits/shared_ptr_base.h **** 
 795:/usr/include/c++/9/bits/shared_ptr_base.h ****   template<_Lock_policy _Lp>
 796:/usr/include/c++/9/bits/shared_ptr_base.h ****     class __weak_count
 797:/usr/include/c++/9/bits/shared_ptr_base.h ****     {
 798:/usr/include/c++/9/bits/shared_ptr_base.h ****     public:
 799:/usr/include/c++/9/bits/shared_ptr_base.h ****       constexpr __weak_count() noexcept : _M_pi(nullptr)
 800:/usr/include/c++/9/bits/shared_ptr_base.h ****       { }
 801:/usr/include/c++/9/bits/shared_ptr_base.h **** 
 802:/usr/include/c++/9/bits/shared_ptr_base.h ****       __weak_count(const __shared_count<_Lp>& __r) noexcept
 803:/usr/include/c++/9/bits/shared_ptr_base.h ****       : _M_pi(__r._M_pi)
 804:/usr/include/c++/9/bits/shared_ptr_base.h ****       {
 805:/usr/include/c++/9/bits/shared_ptr_base.h **** 	if (_M_pi != nullptr)
 806:/usr/include/c++/9/bits/shared_ptr_base.h **** 	  _M_pi->_M_weak_add_ref();
 807:/usr/include/c++/9/bits/shared_ptr_base.h ****       }
 808:/usr/include/c++/9/bits/shared_ptr_base.h **** 
 809:/usr/include/c++/9/bits/shared_ptr_base.h ****       __weak_count(const __weak_count& __r) noexcept
 810:/usr/include/c++/9/bits/shared_ptr_base.h ****       : _M_pi(__r._M_pi)
 811:/usr/include/c++/9/bits/shared_ptr_base.h ****       {
 812:/usr/include/c++/9/bits/shared_ptr_base.h **** 	if (_M_pi != nullptr)
 813:/usr/include/c++/9/bits/shared_ptr_base.h **** 	  _M_pi->_M_weak_add_ref();
 814:/usr/include/c++/9/bits/shared_ptr_base.h ****       }
 815:/usr/include/c++/9/bits/shared_ptr_base.h **** 
 816:/usr/include/c++/9/bits/shared_ptr_base.h ****       __weak_count(__weak_count&& __r) noexcept
 817:/usr/include/c++/9/bits/shared_ptr_base.h ****       : _M_pi(__r._M_pi)
 818:/usr/include/c++/9/bits/shared_ptr_base.h ****       { __r._M_pi = nullptr; }
 819:/usr/include/c++/9/bits/shared_ptr_base.h **** 
 820:/usr/include/c++/9/bits/shared_ptr_base.h ****       ~__weak_count() noexcept
 821:/usr/include/c++/9/bits/shared_ptr_base.h ****       {
 822:/usr/include/c++/9/bits/shared_ptr_base.h **** 	if (_M_pi != nullptr)
 823:/usr/include/c++/9/bits/shared_ptr_base.h **** 	  _M_pi->_M_weak_release();
 824:/usr/include/c++/9/bits/shared_ptr_base.h ****       }
 825:/usr/include/c++/9/bits/shared_ptr_base.h **** 
 826:/usr/include/c++/9/bits/shared_ptr_base.h ****       __weak_count&
 827:/usr/include/c++/9/bits/shared_ptr_base.h ****       operator=(const __shared_count<_Lp>& __r) noexcept
 828:/usr/include/c++/9/bits/shared_ptr_base.h ****       {
 829:/usr/include/c++/9/bits/shared_ptr_base.h **** 	_Sp_counted_base<_Lp>* __tmp = __r._M_pi;
 830:/usr/include/c++/9/bits/shared_ptr_base.h **** 	if (__tmp != nullptr)
 831:/usr/include/c++/9/bits/shared_ptr_base.h **** 	  __tmp->_M_weak_add_ref();
 832:/usr/include/c++/9/bits/shared_ptr_base.h **** 	if (_M_pi != nullptr)
 833:/usr/include/c++/9/bits/shared_ptr_base.h **** 	  _M_pi->_M_weak_release();
 834:/usr/include/c++/9/bits/shared_ptr_base.h **** 	_M_pi = __tmp;
 835:/usr/include/c++/9/bits/shared_ptr_base.h **** 	return *this;
 836:/usr/include/c++/9/bits/shared_ptr_base.h ****       }
 837:/usr/include/c++/9/bits/shared_ptr_base.h **** 
 838:/usr/include/c++/9/bits/shared_ptr_base.h ****       __weak_count&
 839:/usr/include/c++/9/bits/shared_ptr_base.h ****       operator=(const __weak_count& __r) noexcept
 840:/usr/include/c++/9/bits/shared_ptr_base.h ****       {
 841:/usr/include/c++/9/bits/shared_ptr_base.h **** 	_Sp_counted_base<_Lp>* __tmp = __r._M_pi;
 842:/usr/include/c++/9/bits/shared_ptr_base.h **** 	if (__tmp != nullptr)
 843:/usr/include/c++/9/bits/shared_ptr_base.h **** 	  __tmp->_M_weak_add_ref();
 844:/usr/include/c++/9/bits/shared_ptr_base.h **** 	if (_M_pi != nullptr)
 845:/usr/include/c++/9/bits/shared_ptr_base.h **** 	  _M_pi->_M_weak_release();
 846:/usr/include/c++/9/bits/shared_ptr_base.h **** 	_M_pi = __tmp;
 847:/usr/include/c++/9/bits/shared_ptr_base.h **** 	return *this;
 848:/usr/include/c++/9/bits/shared_ptr_base.h ****       }
 849:/usr/include/c++/9/bits/shared_ptr_base.h **** 
 850:/usr/include/c++/9/bits/shared_ptr_base.h ****       __weak_count&
 851:/usr/include/c++/9/bits/shared_ptr_base.h ****       operator=(__weak_count&& __r) noexcept
 852:/usr/include/c++/9/bits/shared_ptr_base.h ****       {
 853:/usr/include/c++/9/bits/shared_ptr_base.h **** 	if (_M_pi != nullptr)
 854:/usr/include/c++/9/bits/shared_ptr_base.h **** 	  _M_pi->_M_weak_release();
 855:/usr/include/c++/9/bits/shared_ptr_base.h **** 	_M_pi = __r._M_pi;
 856:/usr/include/c++/9/bits/shared_ptr_base.h ****         __r._M_pi = nullptr;
 857:/usr/include/c++/9/bits/shared_ptr_base.h **** 	return *this;
 858:/usr/include/c++/9/bits/shared_ptr_base.h ****       }
 859:/usr/include/c++/9/bits/shared_ptr_base.h **** 
 860:/usr/include/c++/9/bits/shared_ptr_base.h ****       void
 861:/usr/include/c++/9/bits/shared_ptr_base.h ****       _M_swap(__weak_count& __r) noexcept
 862:/usr/include/c++/9/bits/shared_ptr_base.h ****       {
 863:/usr/include/c++/9/bits/shared_ptr_base.h **** 	_Sp_counted_base<_Lp>* __tmp = __r._M_pi;
 864:/usr/include/c++/9/bits/shared_ptr_base.h **** 	__r._M_pi = _M_pi;
 865:/usr/include/c++/9/bits/shared_ptr_base.h **** 	_M_pi = __tmp;
 866:/usr/include/c++/9/bits/shared_ptr_base.h ****       }
 867:/usr/include/c++/9/bits/shared_ptr_base.h **** 
 868:/usr/include/c++/9/bits/shared_ptr_base.h ****       long
 869:/usr/include/c++/9/bits/shared_ptr_base.h ****       _M_get_use_count() const noexcept
 870:/usr/include/c++/9/bits/shared_ptr_base.h ****       { return _M_pi != nullptr ? _M_pi->_M_get_use_count() : 0; }
 871:/usr/include/c++/9/bits/shared_ptr_base.h **** 
 872:/usr/include/c++/9/bits/shared_ptr_base.h ****       bool
 873:/usr/include/c++/9/bits/shared_ptr_base.h ****       _M_less(const __weak_count& __rhs) const noexcept
 874:/usr/include/c++/9/bits/shared_ptr_base.h ****       { return std::less<_Sp_counted_base<_Lp>*>()(this->_M_pi, __rhs._M_pi); }
 875:/usr/include/c++/9/bits/shared_ptr_base.h **** 
 876:/usr/include/c++/9/bits/shared_ptr_base.h ****       bool
 877:/usr/include/c++/9/bits/shared_ptr_base.h ****       _M_less(const __shared_count<_Lp>& __rhs) const noexcept
 878:/usr/include/c++/9/bits/shared_ptr_base.h ****       { return std::less<_Sp_counted_base<_Lp>*>()(this->_M_pi, __rhs._M_pi); }
 879:/usr/include/c++/9/bits/shared_ptr_base.h **** 
 880:/usr/include/c++/9/bits/shared_ptr_base.h ****       // Friend function injected into enclosing namespace and found by ADL
 881:/usr/include/c++/9/bits/shared_ptr_base.h ****       friend inline bool
 882:/usr/include/c++/9/bits/shared_ptr_base.h ****       operator==(const __weak_count& __a, const __weak_count& __b) noexcept
 883:/usr/include/c++/9/bits/shared_ptr_base.h ****       { return __a._M_pi == __b._M_pi; }
 884:/usr/include/c++/9/bits/shared_ptr_base.h **** 
 885:/usr/include/c++/9/bits/shared_ptr_base.h ****     private:
 886:/usr/include/c++/9/bits/shared_ptr_base.h ****       friend class __shared_count<_Lp>;
 887:/usr/include/c++/9/bits/shared_ptr_base.h **** 
 888:/usr/include/c++/9/bits/shared_ptr_base.h ****       _Sp_counted_base<_Lp>*  _M_pi;
 889:/usr/include/c++/9/bits/shared_ptr_base.h ****     };
 890:/usr/include/c++/9/bits/shared_ptr_base.h **** 
 891:/usr/include/c++/9/bits/shared_ptr_base.h ****   // Now that __weak_count is defined we can define this constructor:
 892:/usr/include/c++/9/bits/shared_ptr_base.h ****   template<_Lock_policy _Lp>
 893:/usr/include/c++/9/bits/shared_ptr_base.h ****     inline
 894:/usr/include/c++/9/bits/shared_ptr_base.h ****     __shared_count<_Lp>::__shared_count(const __weak_count<_Lp>& __r)
 895:/usr/include/c++/9/bits/shared_ptr_base.h ****     : _M_pi(__r._M_pi)
 896:/usr/include/c++/9/bits/shared_ptr_base.h ****     {
 897:/usr/include/c++/9/bits/shared_ptr_base.h ****       if (_M_pi != nullptr)
 898:/usr/include/c++/9/bits/shared_ptr_base.h **** 	_M_pi->_M_add_ref_lock();
 899:/usr/include/c++/9/bits/shared_ptr_base.h ****       else
 900:/usr/include/c++/9/bits/shared_ptr_base.h **** 	__throw_bad_weak_ptr();
 901:/usr/include/c++/9/bits/shared_ptr_base.h ****     }
 902:/usr/include/c++/9/bits/shared_ptr_base.h **** 
 903:/usr/include/c++/9/bits/shared_ptr_base.h ****   // Now that __weak_count is defined we can define this constructor:
 904:/usr/include/c++/9/bits/shared_ptr_base.h ****   template<_Lock_policy _Lp>
 905:/usr/include/c++/9/bits/shared_ptr_base.h ****     inline
 906:/usr/include/c++/9/bits/shared_ptr_base.h ****     __shared_count<_Lp>::
 907:/usr/include/c++/9/bits/shared_ptr_base.h ****     __shared_count(const __weak_count<_Lp>& __r, std::nothrow_t)
 908:/usr/include/c++/9/bits/shared_ptr_base.h ****     : _M_pi(__r._M_pi)
 909:/usr/include/c++/9/bits/shared_ptr_base.h ****     {
 910:/usr/include/c++/9/bits/shared_ptr_base.h ****       if (_M_pi != nullptr)
 911:/usr/include/c++/9/bits/shared_ptr_base.h **** 	if (!_M_pi->_M_add_ref_lock_nothrow())
 912:/usr/include/c++/9/bits/shared_ptr_base.h **** 	  _M_pi = nullptr;
 913:/usr/include/c++/9/bits/shared_ptr_base.h ****     }
 914:/usr/include/c++/9/bits/shared_ptr_base.h **** 
 915:/usr/include/c++/9/bits/shared_ptr_base.h **** #define __cpp_lib_shared_ptr_arrays 201611L
 916:/usr/include/c++/9/bits/shared_ptr_base.h **** 
 917:/usr/include/c++/9/bits/shared_ptr_base.h ****   // Helper traits for shared_ptr of array:
 918:/usr/include/c++/9/bits/shared_ptr_base.h **** 
 919:/usr/include/c++/9/bits/shared_ptr_base.h ****   // A pointer type Y* is said to be compatible with a pointer type T* when
 920:/usr/include/c++/9/bits/shared_ptr_base.h ****   // either Y* is convertible to T* or Y is U[N] and T is U cv [].
 921:/usr/include/c++/9/bits/shared_ptr_base.h ****   template<typename _Yp_ptr, typename _Tp_ptr>
 922:/usr/include/c++/9/bits/shared_ptr_base.h ****     struct __sp_compatible_with
 923:/usr/include/c++/9/bits/shared_ptr_base.h ****     : false_type
 924:/usr/include/c++/9/bits/shared_ptr_base.h ****     { };
 925:/usr/include/c++/9/bits/shared_ptr_base.h **** 
 926:/usr/include/c++/9/bits/shared_ptr_base.h ****   template<typename _Yp, typename _Tp>
 927:/usr/include/c++/9/bits/shared_ptr_base.h ****     struct __sp_compatible_with<_Yp*, _Tp*>
 928:/usr/include/c++/9/bits/shared_ptr_base.h ****     : is_convertible<_Yp*, _Tp*>::type
 929:/usr/include/c++/9/bits/shared_ptr_base.h ****     { };
 930:/usr/include/c++/9/bits/shared_ptr_base.h **** 
 931:/usr/include/c++/9/bits/shared_ptr_base.h ****   template<typename _Up, size_t _Nm>
 932:/usr/include/c++/9/bits/shared_ptr_base.h ****     struct __sp_compatible_with<_Up(*)[_Nm], _Up(*)[]>
 933:/usr/include/c++/9/bits/shared_ptr_base.h ****     : true_type
 934:/usr/include/c++/9/bits/shared_ptr_base.h ****     { };
 935:/usr/include/c++/9/bits/shared_ptr_base.h **** 
 936:/usr/include/c++/9/bits/shared_ptr_base.h ****   template<typename _Up, size_t _Nm>
 937:/usr/include/c++/9/bits/shared_ptr_base.h ****     struct __sp_compatible_with<_Up(*)[_Nm], const _Up(*)[]>
 938:/usr/include/c++/9/bits/shared_ptr_base.h ****     : true_type
 939:/usr/include/c++/9/bits/shared_ptr_base.h ****     { };
 940:/usr/include/c++/9/bits/shared_ptr_base.h **** 
 941:/usr/include/c++/9/bits/shared_ptr_base.h ****   template<typename _Up, size_t _Nm>
 942:/usr/include/c++/9/bits/shared_ptr_base.h ****     struct __sp_compatible_with<_Up(*)[_Nm], volatile _Up(*)[]>
 943:/usr/include/c++/9/bits/shared_ptr_base.h ****     : true_type
 944:/usr/include/c++/9/bits/shared_ptr_base.h ****     { };
 945:/usr/include/c++/9/bits/shared_ptr_base.h **** 
 946:/usr/include/c++/9/bits/shared_ptr_base.h ****   template<typename _Up, size_t _Nm>
 947:/usr/include/c++/9/bits/shared_ptr_base.h ****     struct __sp_compatible_with<_Up(*)[_Nm], const volatile _Up(*)[]>
 948:/usr/include/c++/9/bits/shared_ptr_base.h ****     : true_type
 949:/usr/include/c++/9/bits/shared_ptr_base.h ****     { };
 950:/usr/include/c++/9/bits/shared_ptr_base.h **** 
 951:/usr/include/c++/9/bits/shared_ptr_base.h ****   // Test conversion from Y(*)[N] to U(*)[N] without forming invalid type Y[N].
 952:/usr/include/c++/9/bits/shared_ptr_base.h ****   template<typename _Up, size_t _Nm, typename _Yp, typename = void>
 953:/usr/include/c++/9/bits/shared_ptr_base.h ****     struct __sp_is_constructible_arrN
 954:/usr/include/c++/9/bits/shared_ptr_base.h ****     : false_type
 955:/usr/include/c++/9/bits/shared_ptr_base.h ****     { };
 956:/usr/include/c++/9/bits/shared_ptr_base.h **** 
 957:/usr/include/c++/9/bits/shared_ptr_base.h ****   template<typename _Up, size_t _Nm, typename _Yp>
 958:/usr/include/c++/9/bits/shared_ptr_base.h ****     struct __sp_is_constructible_arrN<_Up, _Nm, _Yp, __void_t<_Yp[_Nm]>>
 959:/usr/include/c++/9/bits/shared_ptr_base.h ****     : is_convertible<_Yp(*)[_Nm], _Up(*)[_Nm]>::type
 960:/usr/include/c++/9/bits/shared_ptr_base.h ****     { };
 961:/usr/include/c++/9/bits/shared_ptr_base.h **** 
 962:/usr/include/c++/9/bits/shared_ptr_base.h ****   // Test conversion from Y(*)[] to U(*)[] without forming invalid type Y[].
 963:/usr/include/c++/9/bits/shared_ptr_base.h ****   template<typename _Up, typename _Yp, typename = void>
 964:/usr/include/c++/9/bits/shared_ptr_base.h ****     struct __sp_is_constructible_arr
 965:/usr/include/c++/9/bits/shared_ptr_base.h ****     : false_type
 966:/usr/include/c++/9/bits/shared_ptr_base.h ****     { };
 967:/usr/include/c++/9/bits/shared_ptr_base.h **** 
 968:/usr/include/c++/9/bits/shared_ptr_base.h ****   template<typename _Up, typename _Yp>
 969:/usr/include/c++/9/bits/shared_ptr_base.h ****     struct __sp_is_constructible_arr<_Up, _Yp, __void_t<_Yp[]>>
 970:/usr/include/c++/9/bits/shared_ptr_base.h ****     : is_convertible<_Yp(*)[], _Up(*)[]>::type
 971:/usr/include/c++/9/bits/shared_ptr_base.h ****     { };
 972:/usr/include/c++/9/bits/shared_ptr_base.h **** 
 973:/usr/include/c++/9/bits/shared_ptr_base.h ****   // Trait to check if shared_ptr<T> can be constructed from Y*.
 974:/usr/include/c++/9/bits/shared_ptr_base.h ****   template<typename _Tp, typename _Yp>
 975:/usr/include/c++/9/bits/shared_ptr_base.h ****     struct __sp_is_constructible;
 976:/usr/include/c++/9/bits/shared_ptr_base.h **** 
 977:/usr/include/c++/9/bits/shared_ptr_base.h ****   // When T is U[N], Y(*)[N] shall be convertible to T*;
 978:/usr/include/c++/9/bits/shared_ptr_base.h ****   template<typename _Up, size_t _Nm, typename _Yp>
 979:/usr/include/c++/9/bits/shared_ptr_base.h ****     struct __sp_is_constructible<_Up[_Nm], _Yp>
 980:/usr/include/c++/9/bits/shared_ptr_base.h ****     : __sp_is_constructible_arrN<_Up, _Nm, _Yp>::type
 981:/usr/include/c++/9/bits/shared_ptr_base.h ****     { };
 982:/usr/include/c++/9/bits/shared_ptr_base.h **** 
 983:/usr/include/c++/9/bits/shared_ptr_base.h ****   // when T is U[], Y(*)[] shall be convertible to T*;
 984:/usr/include/c++/9/bits/shared_ptr_base.h ****   template<typename _Up, typename _Yp>
 985:/usr/include/c++/9/bits/shared_ptr_base.h ****     struct __sp_is_constructible<_Up[], _Yp>
 986:/usr/include/c++/9/bits/shared_ptr_base.h ****     : __sp_is_constructible_arr<_Up, _Yp>::type
 987:/usr/include/c++/9/bits/shared_ptr_base.h ****     { };
 988:/usr/include/c++/9/bits/shared_ptr_base.h **** 
 989:/usr/include/c++/9/bits/shared_ptr_base.h ****   // otherwise, Y* shall be convertible to T*.
 990:/usr/include/c++/9/bits/shared_ptr_base.h ****   template<typename _Tp, typename _Yp>
 991:/usr/include/c++/9/bits/shared_ptr_base.h ****     struct __sp_is_constructible
 992:/usr/include/c++/9/bits/shared_ptr_base.h ****     : is_convertible<_Yp*, _Tp*>::type
 993:/usr/include/c++/9/bits/shared_ptr_base.h ****     { };
 994:/usr/include/c++/9/bits/shared_ptr_base.h **** 
 995:/usr/include/c++/9/bits/shared_ptr_base.h **** 
 996:/usr/include/c++/9/bits/shared_ptr_base.h ****   // Define operator* and operator-> for shared_ptr<T>.
 997:/usr/include/c++/9/bits/shared_ptr_base.h ****   template<typename _Tp, _Lock_policy _Lp,
 998:/usr/include/c++/9/bits/shared_ptr_base.h **** 	   bool = is_array<_Tp>::value, bool = is_void<_Tp>::value>
 999:/usr/include/c++/9/bits/shared_ptr_base.h ****     class __shared_ptr_access
1000:/usr/include/c++/9/bits/shared_ptr_base.h ****     {
1001:/usr/include/c++/9/bits/shared_ptr_base.h ****     public:
1002:/usr/include/c++/9/bits/shared_ptr_base.h ****       using element_type = _Tp;
1003:/usr/include/c++/9/bits/shared_ptr_base.h **** 
1004:/usr/include/c++/9/bits/shared_ptr_base.h ****       element_type&
1005:/usr/include/c++/9/bits/shared_ptr_base.h ****       operator*() const noexcept
1006:/usr/include/c++/9/bits/shared_ptr_base.h ****       {
1007:/usr/include/c++/9/bits/shared_ptr_base.h **** 	__glibcxx_assert(_M_get() != nullptr);
1008:/usr/include/c++/9/bits/shared_ptr_base.h **** 	return *_M_get();
1009:/usr/include/c++/9/bits/shared_ptr_base.h ****       }
1010:/usr/include/c++/9/bits/shared_ptr_base.h **** 
1011:/usr/include/c++/9/bits/shared_ptr_base.h ****       element_type*
1012:/usr/include/c++/9/bits/shared_ptr_base.h ****       operator->() const noexcept
1013:/usr/include/c++/9/bits/shared_ptr_base.h ****       {
1014:/usr/include/c++/9/bits/shared_ptr_base.h **** 	_GLIBCXX_DEBUG_PEDASSERT(_M_get() != nullptr);
1015:/usr/include/c++/9/bits/shared_ptr_base.h **** 	return _M_get();
1016:/usr/include/c++/9/bits/shared_ptr_base.h ****       }
1017:/usr/include/c++/9/bits/shared_ptr_base.h **** 
1018:/usr/include/c++/9/bits/shared_ptr_base.h ****     private:
1019:/usr/include/c++/9/bits/shared_ptr_base.h ****       element_type*
1020:/usr/include/c++/9/bits/shared_ptr_base.h ****       _M_get() const noexcept
1021:/usr/include/c++/9/bits/shared_ptr_base.h ****       { return static_cast<const __shared_ptr<_Tp, _Lp>*>(this)->get(); }
1022:/usr/include/c++/9/bits/shared_ptr_base.h ****     };
1023:/usr/include/c++/9/bits/shared_ptr_base.h **** 
1024:/usr/include/c++/9/bits/shared_ptr_base.h ****   // Define operator-> for shared_ptr<cv void>.
1025:/usr/include/c++/9/bits/shared_ptr_base.h ****   template<typename _Tp, _Lock_policy _Lp>
1026:/usr/include/c++/9/bits/shared_ptr_base.h ****     class __shared_ptr_access<_Tp, _Lp, false, true>
1027:/usr/include/c++/9/bits/shared_ptr_base.h ****     {
1028:/usr/include/c++/9/bits/shared_ptr_base.h ****     public:
1029:/usr/include/c++/9/bits/shared_ptr_base.h ****       using element_type = _Tp;
1030:/usr/include/c++/9/bits/shared_ptr_base.h **** 
1031:/usr/include/c++/9/bits/shared_ptr_base.h ****       element_type*
1032:/usr/include/c++/9/bits/shared_ptr_base.h ****       operator->() const noexcept
1033:/usr/include/c++/9/bits/shared_ptr_base.h ****       {
1034:/usr/include/c++/9/bits/shared_ptr_base.h **** 	auto __ptr = static_cast<const __shared_ptr<_Tp, _Lp>*>(this)->get();
1035:/usr/include/c++/9/bits/shared_ptr_base.h **** 	_GLIBCXX_DEBUG_PEDASSERT(__ptr != nullptr);
1036:/usr/include/c++/9/bits/shared_ptr_base.h **** 	return __ptr;
1037:/usr/include/c++/9/bits/shared_ptr_base.h ****       }
1038:/usr/include/c++/9/bits/shared_ptr_base.h ****     };
1039:/usr/include/c++/9/bits/shared_ptr_base.h **** 
1040:/usr/include/c++/9/bits/shared_ptr_base.h ****   // Define operator[] for shared_ptr<T[]> and shared_ptr<T[N]>.
1041:/usr/include/c++/9/bits/shared_ptr_base.h ****   template<typename _Tp, _Lock_policy _Lp>
1042:/usr/include/c++/9/bits/shared_ptr_base.h ****     class __shared_ptr_access<_Tp, _Lp, true, false>
1043:/usr/include/c++/9/bits/shared_ptr_base.h ****     {
1044:/usr/include/c++/9/bits/shared_ptr_base.h ****     public:
1045:/usr/include/c++/9/bits/shared_ptr_base.h ****       using element_type = typename remove_extent<_Tp>::type;
1046:/usr/include/c++/9/bits/shared_ptr_base.h **** 
1047:/usr/include/c++/9/bits/shared_ptr_base.h **** #if __cplusplus <= 201402L
1048:/usr/include/c++/9/bits/shared_ptr_base.h ****       [[__deprecated__("shared_ptr<T[]>::operator* is absent from C++17")]]
1049:/usr/include/c++/9/bits/shared_ptr_base.h ****       element_type&
1050:/usr/include/c++/9/bits/shared_ptr_base.h ****       operator*() const noexcept
1051:/usr/include/c++/9/bits/shared_ptr_base.h ****       {
1052:/usr/include/c++/9/bits/shared_ptr_base.h **** 	__glibcxx_assert(_M_get() != nullptr);
1053:/usr/include/c++/9/bits/shared_ptr_base.h **** 	return *_M_get();
1054:/usr/include/c++/9/bits/shared_ptr_base.h ****       }
1055:/usr/include/c++/9/bits/shared_ptr_base.h **** 
1056:/usr/include/c++/9/bits/shared_ptr_base.h ****       [[__deprecated__("shared_ptr<T[]>::operator-> is absent from C++17")]]
1057:/usr/include/c++/9/bits/shared_ptr_base.h ****       element_type*
1058:/usr/include/c++/9/bits/shared_ptr_base.h ****       operator->() const noexcept
1059:/usr/include/c++/9/bits/shared_ptr_base.h ****       {
1060:/usr/include/c++/9/bits/shared_ptr_base.h **** 	_GLIBCXX_DEBUG_PEDASSERT(_M_get() != nullptr);
1061:/usr/include/c++/9/bits/shared_ptr_base.h **** 	return _M_get();
1062:/usr/include/c++/9/bits/shared_ptr_base.h ****       }
1063:/usr/include/c++/9/bits/shared_ptr_base.h **** #endif
1064:/usr/include/c++/9/bits/shared_ptr_base.h **** 
1065:/usr/include/c++/9/bits/shared_ptr_base.h ****       element_type&
1066:/usr/include/c++/9/bits/shared_ptr_base.h ****       operator[](ptrdiff_t __i) const
1067:/usr/include/c++/9/bits/shared_ptr_base.h ****       {
1068:/usr/include/c++/9/bits/shared_ptr_base.h **** 	__glibcxx_assert(_M_get() != nullptr);
1069:/usr/include/c++/9/bits/shared_ptr_base.h **** 	__glibcxx_assert(!extent<_Tp>::value || __i < extent<_Tp>::value);
1070:/usr/include/c++/9/bits/shared_ptr_base.h **** 	return _M_get()[__i];
1071:/usr/include/c++/9/bits/shared_ptr_base.h ****       }
1072:/usr/include/c++/9/bits/shared_ptr_base.h **** 
1073:/usr/include/c++/9/bits/shared_ptr_base.h ****     private:
1074:/usr/include/c++/9/bits/shared_ptr_base.h ****       element_type*
1075:/usr/include/c++/9/bits/shared_ptr_base.h ****       _M_get() const noexcept
1076:/usr/include/c++/9/bits/shared_ptr_base.h ****       { return static_cast<const __shared_ptr<_Tp, _Lp>*>(this)->get(); }
1077:/usr/include/c++/9/bits/shared_ptr_base.h ****     };
1078:/usr/include/c++/9/bits/shared_ptr_base.h **** 
1079:/usr/include/c++/9/bits/shared_ptr_base.h ****   template<typename _Tp, _Lock_policy _Lp>
1080:/usr/include/c++/9/bits/shared_ptr_base.h ****     class __shared_ptr
1081:/usr/include/c++/9/bits/shared_ptr_base.h ****     : public __shared_ptr_access<_Tp, _Lp>
1082:/usr/include/c++/9/bits/shared_ptr_base.h ****     {
1083:/usr/include/c++/9/bits/shared_ptr_base.h ****     public:
1084:/usr/include/c++/9/bits/shared_ptr_base.h ****       using element_type = typename remove_extent<_Tp>::type;
1085:/usr/include/c++/9/bits/shared_ptr_base.h **** 
1086:/usr/include/c++/9/bits/shared_ptr_base.h ****     private:
1087:/usr/include/c++/9/bits/shared_ptr_base.h ****       // Constraint for taking ownership of a pointer of type _Yp*:
1088:/usr/include/c++/9/bits/shared_ptr_base.h ****       template<typename _Yp>
1089:/usr/include/c++/9/bits/shared_ptr_base.h **** 	using _SafeConv
1090:/usr/include/c++/9/bits/shared_ptr_base.h **** 	  = typename enable_if<__sp_is_constructible<_Tp, _Yp>::value>::type;
1091:/usr/include/c++/9/bits/shared_ptr_base.h **** 
1092:/usr/include/c++/9/bits/shared_ptr_base.h ****       // Constraint for construction from shared_ptr and weak_ptr:
1093:/usr/include/c++/9/bits/shared_ptr_base.h ****       template<typename _Yp, typename _Res = void>
1094:/usr/include/c++/9/bits/shared_ptr_base.h **** 	using _Compatible = typename
1095:/usr/include/c++/9/bits/shared_ptr_base.h **** 	  enable_if<__sp_compatible_with<_Yp*, _Tp*>::value, _Res>::type;
1096:/usr/include/c++/9/bits/shared_ptr_base.h **** 
1097:/usr/include/c++/9/bits/shared_ptr_base.h ****       // Constraint for assignment from shared_ptr and weak_ptr:
1098:/usr/include/c++/9/bits/shared_ptr_base.h ****       template<typename _Yp>
1099:/usr/include/c++/9/bits/shared_ptr_base.h **** 	using _Assignable = _Compatible<_Yp, __shared_ptr&>;
1100:/usr/include/c++/9/bits/shared_ptr_base.h **** 
1101:/usr/include/c++/9/bits/shared_ptr_base.h ****       // Constraint for construction from unique_ptr:
1102:/usr/include/c++/9/bits/shared_ptr_base.h ****       template<typename _Yp, typename _Del, typename _Res = void,
1103:/usr/include/c++/9/bits/shared_ptr_base.h **** 	       typename _Ptr = typename unique_ptr<_Yp, _Del>::pointer>
1104:/usr/include/c++/9/bits/shared_ptr_base.h **** 	using _UniqCompatible = typename enable_if<__and_<
1105:/usr/include/c++/9/bits/shared_ptr_base.h **** 	  __sp_compatible_with<_Yp*, _Tp*>, is_convertible<_Ptr, element_type*>
1106:/usr/include/c++/9/bits/shared_ptr_base.h **** 	  >::value, _Res>::type;
1107:/usr/include/c++/9/bits/shared_ptr_base.h **** 
1108:/usr/include/c++/9/bits/shared_ptr_base.h ****       // Constraint for assignment from unique_ptr:
1109:/usr/include/c++/9/bits/shared_ptr_base.h ****       template<typename _Yp, typename _Del>
1110:/usr/include/c++/9/bits/shared_ptr_base.h **** 	using _UniqAssignable = _UniqCompatible<_Yp, _Del, __shared_ptr&>;
1111:/usr/include/c++/9/bits/shared_ptr_base.h **** 
1112:/usr/include/c++/9/bits/shared_ptr_base.h ****     public:
1113:/usr/include/c++/9/bits/shared_ptr_base.h **** 
1114:/usr/include/c++/9/bits/shared_ptr_base.h **** #if __cplusplus > 201402L
1115:/usr/include/c++/9/bits/shared_ptr_base.h ****       using weak_type = __weak_ptr<_Tp, _Lp>;
1116:/usr/include/c++/9/bits/shared_ptr_base.h **** #endif
1117:/usr/include/c++/9/bits/shared_ptr_base.h **** 
1118:/usr/include/c++/9/bits/shared_ptr_base.h ****       constexpr __shared_ptr() noexcept
1119:/usr/include/c++/9/bits/shared_ptr_base.h ****       : _M_ptr(0), _M_refcount()
1120:/usr/include/c++/9/bits/shared_ptr_base.h ****       { }
1121:/usr/include/c++/9/bits/shared_ptr_base.h **** 
1122:/usr/include/c++/9/bits/shared_ptr_base.h ****       template<typename _Yp, typename = _SafeConv<_Yp>>
1123:/usr/include/c++/9/bits/shared_ptr_base.h **** 	explicit
1124:/usr/include/c++/9/bits/shared_ptr_base.h **** 	__shared_ptr(_Yp* __p)
1125:/usr/include/c++/9/bits/shared_ptr_base.h **** 	: _M_ptr(__p), _M_refcount(__p, typename is_array<_Tp>::type())
1126:/usr/include/c++/9/bits/shared_ptr_base.h **** 	{
1127:/usr/include/c++/9/bits/shared_ptr_base.h **** 	  static_assert( !is_void<_Yp>::value, "incomplete type" );
1128:/usr/include/c++/9/bits/shared_ptr_base.h **** 	  static_assert( sizeof(_Yp) > 0, "incomplete type" );
1129:/usr/include/c++/9/bits/shared_ptr_base.h **** 	  _M_enable_shared_from_this_with(__p);
1130:/usr/include/c++/9/bits/shared_ptr_base.h **** 	}
1131:/usr/include/c++/9/bits/shared_ptr_base.h **** 
1132:/usr/include/c++/9/bits/shared_ptr_base.h ****       template<typename _Yp, typename _Deleter, typename = _SafeConv<_Yp>>
1133:/usr/include/c++/9/bits/shared_ptr_base.h **** 	__shared_ptr(_Yp* __p, _Deleter __d)
1134:/usr/include/c++/9/bits/shared_ptr_base.h **** 	: _M_ptr(__p), _M_refcount(__p, std::move(__d))
1135:/usr/include/c++/9/bits/shared_ptr_base.h **** 	{
1136:/usr/include/c++/9/bits/shared_ptr_base.h **** 	  static_assert(__is_invocable<_Deleter&, _Yp*&>::value,
1137:/usr/include/c++/9/bits/shared_ptr_base.h **** 	      "deleter expression d(p) is well-formed");
1138:/usr/include/c++/9/bits/shared_ptr_base.h **** 	  _M_enable_shared_from_this_with(__p);
1139:/usr/include/c++/9/bits/shared_ptr_base.h **** 	}
1140:/usr/include/c++/9/bits/shared_ptr_base.h **** 
1141:/usr/include/c++/9/bits/shared_ptr_base.h ****       template<typename _Yp, typename _Deleter, typename _Alloc,
1142:/usr/include/c++/9/bits/shared_ptr_base.h **** 	       typename = _SafeConv<_Yp>>
1143:/usr/include/c++/9/bits/shared_ptr_base.h **** 	__shared_ptr(_Yp* __p, _Deleter __d, _Alloc __a)
1144:/usr/include/c++/9/bits/shared_ptr_base.h **** 	: _M_ptr(__p), _M_refcount(__p, std::move(__d), std::move(__a))
1145:/usr/include/c++/9/bits/shared_ptr_base.h **** 	{
1146:/usr/include/c++/9/bits/shared_ptr_base.h **** 	  static_assert(__is_invocable<_Deleter&, _Yp*&>::value,
1147:/usr/include/c++/9/bits/shared_ptr_base.h **** 	      "deleter expression d(p) is well-formed");
1148:/usr/include/c++/9/bits/shared_ptr_base.h **** 	  _M_enable_shared_from_this_with(__p);
1149:/usr/include/c++/9/bits/shared_ptr_base.h **** 	}
1150:/usr/include/c++/9/bits/shared_ptr_base.h **** 
1151:/usr/include/c++/9/bits/shared_ptr_base.h ****       template<typename _Deleter>
1152:/usr/include/c++/9/bits/shared_ptr_base.h **** 	__shared_ptr(nullptr_t __p, _Deleter __d)
1153:/usr/include/c++/9/bits/shared_ptr_base.h **** 	: _M_ptr(0), _M_refcount(__p, std::move(__d))
1154:/usr/include/c++/9/bits/shared_ptr_base.h **** 	{ }
1155:/usr/include/c++/9/bits/shared_ptr_base.h **** 
1156:/usr/include/c++/9/bits/shared_ptr_base.h ****       template<typename _Deleter, typename _Alloc>
1157:/usr/include/c++/9/bits/shared_ptr_base.h ****         __shared_ptr(nullptr_t __p, _Deleter __d, _Alloc __a)
1158:/usr/include/c++/9/bits/shared_ptr_base.h **** 	: _M_ptr(0), _M_refcount(__p, std::move(__d), std::move(__a))
1159:/usr/include/c++/9/bits/shared_ptr_base.h **** 	{ }
1160:/usr/include/c++/9/bits/shared_ptr_base.h **** 
1161:/usr/include/c++/9/bits/shared_ptr_base.h ****       template<typename _Yp>
1162:/usr/include/c++/9/bits/shared_ptr_base.h **** 	__shared_ptr(const __shared_ptr<_Yp, _Lp>& __r,
1163:/usr/include/c++/9/bits/shared_ptr_base.h **** 		     element_type* __p) noexcept
1164:/usr/include/c++/9/bits/shared_ptr_base.h **** 	: _M_ptr(__p), _M_refcount(__r._M_refcount) // never throws
1165:/usr/include/c++/9/bits/shared_ptr_base.h **** 	{ }
1166:/usr/include/c++/9/bits/shared_ptr_base.h **** 
1167:/usr/include/c++/9/bits/shared_ptr_base.h ****       __shared_ptr(const __shared_ptr&) noexcept = default;
 880              		.loc 5 1167 7
 881              		.cfi_startproc
 882 0000 F30F1EFA 		endbr64	
 883 0004 55       		pushq	%rbp	#
 884              		.cfi_def_cfa_offset 16
 885              		.cfi_offset 6, -16
 886 0005 4889E5   		movq	%rsp, %rbp	#,
 887              		.cfi_def_cfa_register 6
 888 0008 4883EC10 		subq	$16, %rsp	#,
 889 000c 48897DF8 		movq	%rdi, -8(%rbp)	# this, this
 890 0010 488975F0 		movq	%rsi, -16(%rbp)	# D.47353, D.47353
 891              	.LBB10:
 892              	# /usr/include/c++/9/bits/shared_ptr_base.h:1167:       __shared_ptr(const __shared_ptr&) noexcept 
 893              		.loc 5 1167 7
 894 0014 488B45F0 		movq	-16(%rbp), %rax	# D.47353, tmp86
 895 0018 488B10   		movq	(%rax), %rdx	# _8(D)->_M_ptr, _1
 896 001b 488B45F8 		movq	-8(%rbp), %rax	# this, tmp87
 897 001f 488910   		movq	%rdx, (%rax)	# _1, this_6(D)->_M_ptr
 898 0022 488B45F8 		movq	-8(%rbp), %rax	# this, tmp88
 899 0026 4883C008 		addq	$8, %rax	#, _2
 900 002a 488B55F0 		movq	-16(%rbp), %rdx	# D.47353, tmp89
 901 002e 4883C208 		addq	$8, %rdx	#, _3
 902 0032 4889D6   		movq	%rdx, %rsi	# _3,
 903 0035 4889C7   		movq	%rax, %rdi	# _2,
 904 0038 E8000000 		call	_ZNSt14__shared_countILN9__gnu_cxx12_Lock_policyE2EEC1ERKS2_	#
 904      00
 905              	.LBE10:
 906 003d 90       		nop	
 907 003e C9       		leave	
 908              		.cfi_def_cfa 7, 8
 909 003f C3       		ret	
 910              		.cfi_endproc
 911              	.LFE2451:
 913              		.weak	_ZNSt12__shared_ptrI4CoreLN9__gnu_cxx12_Lock_policyE2EEC1ERKS3_
 914              		.set	_ZNSt12__shared_ptrI4CoreLN9__gnu_cxx12_Lock_policyE2EEC1ERKS3_,_ZNSt12__shared_ptrI4CoreLN9_
 915              		.section	.text._ZNSt12__shared_ptrI4CoreLN9__gnu_cxx12_Lock_policyE2EED2Ev,"axG",@progbits,_ZNSt12
 916              		.align 2
 917              		.weak	_ZNSt12__shared_ptrI4CoreLN9__gnu_cxx12_Lock_policyE2EED2Ev
 919              	_ZNSt12__shared_ptrI4CoreLN9__gnu_cxx12_Lock_policyE2EED2Ev:
 920              	.LFB2454:
1168:/usr/include/c++/9/bits/shared_ptr_base.h ****       __shared_ptr& operator=(const __shared_ptr&) noexcept = default;
1169:/usr/include/c++/9/bits/shared_ptr_base.h ****       ~__shared_ptr() = default;
 921              		.loc 5 1169 7
 922              		.cfi_startproc
 923 0000 F30F1EFA 		endbr64	
 924 0004 55       		pushq	%rbp	#
 925              		.cfi_def_cfa_offset 16
 926              		.cfi_offset 6, -16
 927 0005 4889E5   		movq	%rsp, %rbp	#,
 928              		.cfi_def_cfa_register 6
 929 0008 4883EC10 		subq	$16, %rsp	#,
 930 000c 48897DF8 		movq	%rdi, -8(%rbp)	# this, this
 931              	.LBB11:
 932              	# /usr/include/c++/9/bits/shared_ptr_base.h:1169:       ~__shared_ptr() = default;
 933              		.loc 5 1169 7
 934 0010 488B45F8 		movq	-8(%rbp), %rax	# this, tmp83
 935 0014 4883C008 		addq	$8, %rax	#, _1
 936 0018 4889C7   		movq	%rax, %rdi	# _1,
 937 001b E8000000 		call	_ZNSt14__shared_countILN9__gnu_cxx12_Lock_policyE2EED1Ev	#
 937      00
 938              	.LBE11:
 939 0020 90       		nop	
 940 0021 C9       		leave	
 941              		.cfi_def_cfa 7, 8
 942 0022 C3       		ret	
 943              		.cfi_endproc
 944              	.LFE2454:
 946              		.weak	_ZNSt12__shared_ptrI4CoreLN9__gnu_cxx12_Lock_policyE2EED1Ev
 947              		.set	_ZNSt12__shared_ptrI4CoreLN9__gnu_cxx12_Lock_policyE2EED1Ev,_ZNSt12__shared_ptrI4CoreLN9__gnu
 948              		.section	.text._ZNSt10shared_ptrI4CoreEC2ERKS1_,"axG",@progbits,_ZNSt10shared_ptrI4CoreEC5ERKS1_,c
 949              		.align 2
 950              		.weak	_ZNSt10shared_ptrI4CoreEC2ERKS1_
 952              	_ZNSt10shared_ptrI4CoreEC2ERKS1_:
 953              	.LFB2456:
 954              		.file 7 "/usr/include/c++/9/bits/shared_ptr.h"
   1:/usr/include/c++/9/bits/shared_ptr.h **** // shared_ptr and weak_ptr implementation -*- C++ -*-
   2:/usr/include/c++/9/bits/shared_ptr.h **** 
   3:/usr/include/c++/9/bits/shared_ptr.h **** // Copyright (C) 2007-2019 Free Software Foundation, Inc.
   4:/usr/include/c++/9/bits/shared_ptr.h **** //
   5:/usr/include/c++/9/bits/shared_ptr.h **** // This file is part of the GNU ISO C++ Library.  This library is free
   6:/usr/include/c++/9/bits/shared_ptr.h **** // software; you can redistribute it and/or modify it under the
   7:/usr/include/c++/9/bits/shared_ptr.h **** // terms of the GNU General Public License as published by the
   8:/usr/include/c++/9/bits/shared_ptr.h **** // Free Software Foundation; either version 3, or (at your option)
   9:/usr/include/c++/9/bits/shared_ptr.h **** // any later version.
  10:/usr/include/c++/9/bits/shared_ptr.h **** 
  11:/usr/include/c++/9/bits/shared_ptr.h **** // This library is distributed in the hope that it will be useful,
  12:/usr/include/c++/9/bits/shared_ptr.h **** // but WITHOUT ANY WARRANTY; without even the implied warranty of
  13:/usr/include/c++/9/bits/shared_ptr.h **** // MERCHANTABILITY or FITNESS FOR A PARTICULAR PURPOSE.  See the
  14:/usr/include/c++/9/bits/shared_ptr.h **** // GNU General Public License for more details.
  15:/usr/include/c++/9/bits/shared_ptr.h **** 
  16:/usr/include/c++/9/bits/shared_ptr.h **** // Under Section 7 of GPL version 3, you are granted additional
  17:/usr/include/c++/9/bits/shared_ptr.h **** // permissions described in the GCC Runtime Library Exception, version
  18:/usr/include/c++/9/bits/shared_ptr.h **** // 3.1, as published by the Free Software Foundation.
  19:/usr/include/c++/9/bits/shared_ptr.h **** 
  20:/usr/include/c++/9/bits/shared_ptr.h **** // You should have received a copy of the GNU General Public License and
  21:/usr/include/c++/9/bits/shared_ptr.h **** // a copy of the GCC Runtime Library Exception along with this program;
  22:/usr/include/c++/9/bits/shared_ptr.h **** // see the files COPYING3 and COPYING.RUNTIME respectively.  If not, see
  23:/usr/include/c++/9/bits/shared_ptr.h **** // <http://www.gnu.org/licenses/>.
  24:/usr/include/c++/9/bits/shared_ptr.h **** 
  25:/usr/include/c++/9/bits/shared_ptr.h **** // GCC Note: Based on files from version 1.32.0 of the Boost library.
  26:/usr/include/c++/9/bits/shared_ptr.h **** 
  27:/usr/include/c++/9/bits/shared_ptr.h **** //  shared_count.hpp
  28:/usr/include/c++/9/bits/shared_ptr.h **** //  Copyright (c) 2001, 2002, 2003 Peter Dimov and Multi Media Ltd.
  29:/usr/include/c++/9/bits/shared_ptr.h **** 
  30:/usr/include/c++/9/bits/shared_ptr.h **** //  shared_ptr.hpp
  31:/usr/include/c++/9/bits/shared_ptr.h **** //  Copyright (C) 1998, 1999 Greg Colvin and Beman Dawes.
  32:/usr/include/c++/9/bits/shared_ptr.h **** //  Copyright (C) 2001, 2002, 2003 Peter Dimov
  33:/usr/include/c++/9/bits/shared_ptr.h **** 
  34:/usr/include/c++/9/bits/shared_ptr.h **** //  weak_ptr.hpp
  35:/usr/include/c++/9/bits/shared_ptr.h **** //  Copyright (C) 2001, 2002, 2003 Peter Dimov
  36:/usr/include/c++/9/bits/shared_ptr.h **** 
  37:/usr/include/c++/9/bits/shared_ptr.h **** //  enable_shared_from_this.hpp
  38:/usr/include/c++/9/bits/shared_ptr.h **** //  Copyright (C) 2002 Peter Dimov
  39:/usr/include/c++/9/bits/shared_ptr.h **** 
  40:/usr/include/c++/9/bits/shared_ptr.h **** // Distributed under the Boost Software License, Version 1.0. (See
  41:/usr/include/c++/9/bits/shared_ptr.h **** // accompanying file LICENSE_1_0.txt or copy at
  42:/usr/include/c++/9/bits/shared_ptr.h **** // http://www.boost.org/LICENSE_1_0.txt)
  43:/usr/include/c++/9/bits/shared_ptr.h **** 
  44:/usr/include/c++/9/bits/shared_ptr.h **** /** @file
  45:/usr/include/c++/9/bits/shared_ptr.h ****  *  This is an internal header file, included by other library headers.
  46:/usr/include/c++/9/bits/shared_ptr.h ****  *  Do not attempt to use it directly. @headername{memory}
  47:/usr/include/c++/9/bits/shared_ptr.h ****  */
  48:/usr/include/c++/9/bits/shared_ptr.h **** 
  49:/usr/include/c++/9/bits/shared_ptr.h **** #ifndef _SHARED_PTR_H
  50:/usr/include/c++/9/bits/shared_ptr.h **** #define _SHARED_PTR_H 1
  51:/usr/include/c++/9/bits/shared_ptr.h **** 
  52:/usr/include/c++/9/bits/shared_ptr.h **** #include <bits/shared_ptr_base.h>
  53:/usr/include/c++/9/bits/shared_ptr.h **** 
  54:/usr/include/c++/9/bits/shared_ptr.h **** namespace std _GLIBCXX_VISIBILITY(default)
  55:/usr/include/c++/9/bits/shared_ptr.h **** {
  56:/usr/include/c++/9/bits/shared_ptr.h **** _GLIBCXX_BEGIN_NAMESPACE_VERSION
  57:/usr/include/c++/9/bits/shared_ptr.h **** 
  58:/usr/include/c++/9/bits/shared_ptr.h ****   /**
  59:/usr/include/c++/9/bits/shared_ptr.h ****    * @addtogroup pointer_abstractions
  60:/usr/include/c++/9/bits/shared_ptr.h ****    * @{
  61:/usr/include/c++/9/bits/shared_ptr.h ****    */
  62:/usr/include/c++/9/bits/shared_ptr.h **** 
  63:/usr/include/c++/9/bits/shared_ptr.h ****   /// 20.7.2.2.11 shared_ptr I/O
  64:/usr/include/c++/9/bits/shared_ptr.h ****   template<typename _Ch, typename _Tr, typename _Tp, _Lock_policy _Lp>
  65:/usr/include/c++/9/bits/shared_ptr.h ****     inline std::basic_ostream<_Ch, _Tr>&
  66:/usr/include/c++/9/bits/shared_ptr.h ****     operator<<(std::basic_ostream<_Ch, _Tr>& __os,
  67:/usr/include/c++/9/bits/shared_ptr.h **** 	       const __shared_ptr<_Tp, _Lp>& __p)
  68:/usr/include/c++/9/bits/shared_ptr.h ****     {
  69:/usr/include/c++/9/bits/shared_ptr.h ****       __os << __p.get();
  70:/usr/include/c++/9/bits/shared_ptr.h ****       return __os;
  71:/usr/include/c++/9/bits/shared_ptr.h ****     }
  72:/usr/include/c++/9/bits/shared_ptr.h **** 
  73:/usr/include/c++/9/bits/shared_ptr.h ****   template<typename _Del, typename _Tp, _Lock_policy _Lp>
  74:/usr/include/c++/9/bits/shared_ptr.h ****     inline _Del*
  75:/usr/include/c++/9/bits/shared_ptr.h ****     get_deleter(const __shared_ptr<_Tp, _Lp>& __p) noexcept
  76:/usr/include/c++/9/bits/shared_ptr.h ****     {
  77:/usr/include/c++/9/bits/shared_ptr.h **** #if __cpp_rtti
  78:/usr/include/c++/9/bits/shared_ptr.h ****       return static_cast<_Del*>(__p._M_get_deleter(typeid(_Del)));
  79:/usr/include/c++/9/bits/shared_ptr.h **** #else
  80:/usr/include/c++/9/bits/shared_ptr.h ****       return 0;
  81:/usr/include/c++/9/bits/shared_ptr.h **** #endif
  82:/usr/include/c++/9/bits/shared_ptr.h ****     }
  83:/usr/include/c++/9/bits/shared_ptr.h **** 
  84:/usr/include/c++/9/bits/shared_ptr.h ****   /// 20.7.2.2.10 shared_ptr get_deleter
  85:/usr/include/c++/9/bits/shared_ptr.h ****   template<typename _Del, typename _Tp>
  86:/usr/include/c++/9/bits/shared_ptr.h ****     inline _Del*
  87:/usr/include/c++/9/bits/shared_ptr.h ****     get_deleter(const shared_ptr<_Tp>& __p) noexcept
  88:/usr/include/c++/9/bits/shared_ptr.h ****     {
  89:/usr/include/c++/9/bits/shared_ptr.h **** #if __cpp_rtti
  90:/usr/include/c++/9/bits/shared_ptr.h ****       return static_cast<_Del*>(__p._M_get_deleter(typeid(_Del)));
  91:/usr/include/c++/9/bits/shared_ptr.h **** #else
  92:/usr/include/c++/9/bits/shared_ptr.h ****       return 0;
  93:/usr/include/c++/9/bits/shared_ptr.h **** #endif
  94:/usr/include/c++/9/bits/shared_ptr.h ****     }
  95:/usr/include/c++/9/bits/shared_ptr.h **** 
  96:/usr/include/c++/9/bits/shared_ptr.h ****   /**
  97:/usr/include/c++/9/bits/shared_ptr.h ****    *  @brief  A smart pointer with reference-counted copy semantics.
  98:/usr/include/c++/9/bits/shared_ptr.h ****    *
  99:/usr/include/c++/9/bits/shared_ptr.h ****    *  The object pointed to is deleted when the last shared_ptr pointing to
 100:/usr/include/c++/9/bits/shared_ptr.h ****    *  it is destroyed or reset.
 101:/usr/include/c++/9/bits/shared_ptr.h ****   */
 102:/usr/include/c++/9/bits/shared_ptr.h ****   template<typename _Tp>
 103:/usr/include/c++/9/bits/shared_ptr.h ****     class shared_ptr : public __shared_ptr<_Tp>
 104:/usr/include/c++/9/bits/shared_ptr.h ****     {
 105:/usr/include/c++/9/bits/shared_ptr.h ****       template<typename... _Args>
 106:/usr/include/c++/9/bits/shared_ptr.h **** 	using _Constructible = typename enable_if<
 107:/usr/include/c++/9/bits/shared_ptr.h **** 	  is_constructible<__shared_ptr<_Tp>, _Args...>::value
 108:/usr/include/c++/9/bits/shared_ptr.h **** 	>::type;
 109:/usr/include/c++/9/bits/shared_ptr.h **** 
 110:/usr/include/c++/9/bits/shared_ptr.h ****       template<typename _Arg>
 111:/usr/include/c++/9/bits/shared_ptr.h **** 	using _Assignable = typename enable_if<
 112:/usr/include/c++/9/bits/shared_ptr.h **** 	  is_assignable<__shared_ptr<_Tp>&, _Arg>::value, shared_ptr&
 113:/usr/include/c++/9/bits/shared_ptr.h **** 	>::type;
 114:/usr/include/c++/9/bits/shared_ptr.h **** 
 115:/usr/include/c++/9/bits/shared_ptr.h ****     public:
 116:/usr/include/c++/9/bits/shared_ptr.h **** 
 117:/usr/include/c++/9/bits/shared_ptr.h ****       using element_type = typename __shared_ptr<_Tp>::element_type;
 118:/usr/include/c++/9/bits/shared_ptr.h **** 
 119:/usr/include/c++/9/bits/shared_ptr.h **** #if __cplusplus > 201402L
 120:/usr/include/c++/9/bits/shared_ptr.h **** # define __cpp_lib_shared_ptr_weak_type 201606
 121:/usr/include/c++/9/bits/shared_ptr.h ****       using weak_type = weak_ptr<_Tp>;
 122:/usr/include/c++/9/bits/shared_ptr.h **** #endif
 123:/usr/include/c++/9/bits/shared_ptr.h ****       /**
 124:/usr/include/c++/9/bits/shared_ptr.h ****        *  @brief  Construct an empty %shared_ptr.
 125:/usr/include/c++/9/bits/shared_ptr.h ****        *  @post   use_count()==0 && get()==0
 126:/usr/include/c++/9/bits/shared_ptr.h ****        */
 127:/usr/include/c++/9/bits/shared_ptr.h ****       constexpr shared_ptr() noexcept : __shared_ptr<_Tp>() { }
 128:/usr/include/c++/9/bits/shared_ptr.h **** 
 129:/usr/include/c++/9/bits/shared_ptr.h ****       shared_ptr(const shared_ptr&) noexcept = default;
 955              		.loc 7 129 7
 956              		.cfi_startproc
 957 0000 F30F1EFA 		endbr64	
 958 0004 55       		pushq	%rbp	#
 959              		.cfi_def_cfa_offset 16
 960              		.cfi_offset 6, -16
 961 0005 4889E5   		movq	%rsp, %rbp	#,
 962              		.cfi_def_cfa_register 6
 963 0008 4883EC10 		subq	$16, %rsp	#,
 964 000c 48897DF8 		movq	%rdi, -8(%rbp)	# this, this
 965 0010 488975F0 		movq	%rsi, -16(%rbp)	# D.47964, D.47964
 966              	.LBB12:
 967              	# /usr/include/c++/9/bits/shared_ptr.h:129:       shared_ptr(const shared_ptr&) noexcept = default;
 968              		.loc 7 129 7
 969 0014 488B45F8 		movq	-8(%rbp), %rax	# this, _1
 970 0018 488B55F0 		movq	-16(%rbp), %rdx	# D.47964, _2
 971 001c 4889D6   		movq	%rdx, %rsi	# _2,
 972 001f 4889C7   		movq	%rax, %rdi	# _1,
 973 0022 E8000000 		call	_ZNSt12__shared_ptrI4CoreLN9__gnu_cxx12_Lock_policyE2EEC2ERKS3_	#
 973      00
 974              	.LBE12:
 975 0027 90       		nop	
 976 0028 C9       		leave	
 977              		.cfi_def_cfa 7, 8
 978 0029 C3       		ret	
 979              		.cfi_endproc
 980              	.LFE2456:
 982              		.weak	_ZNSt10shared_ptrI4CoreEC1ERKS1_
 983              		.set	_ZNSt10shared_ptrI4CoreEC1ERKS1_,_ZNSt10shared_ptrI4CoreEC2ERKS1_
 984              		.section	.text._ZNSt10shared_ptrI4CoreED2Ev,"axG",@progbits,_ZNSt10shared_ptrI4CoreED5Ev,comdat
 985              		.align 2
 986              		.weak	_ZNSt10shared_ptrI4CoreED2Ev
 988              	_ZNSt10shared_ptrI4CoreED2Ev:
 989              	.LFB2459:
 103:/usr/include/c++/9/bits/shared_ptr.h ****     {
 990              		.loc 7 103 11
 991              		.cfi_startproc
 992 0000 F30F1EFA 		endbr64	
 993 0004 55       		pushq	%rbp	#
 994              		.cfi_def_cfa_offset 16
 995              		.cfi_offset 6, -16
 996 0005 4889E5   		movq	%rsp, %rbp	#,
 997              		.cfi_def_cfa_register 6
 998 0008 4883EC10 		subq	$16, %rsp	#,
 999 000c 48897DF8 		movq	%rdi, -8(%rbp)	# this, this
 1000              	.LBB13:
 1001              	# /usr/include/c++/9/bits/shared_ptr.h:103:     class shared_ptr : public __shared_ptr<_Tp>
 103:/usr/include/c++/9/bits/shared_ptr.h ****     {
 1002              		.loc 7 103 11
 1003 0010 488B45F8 		movq	-8(%rbp), %rax	# this, _1
 1004 0014 4889C7   		movq	%rax, %rdi	# _1,
 1005 0017 E8000000 		call	_ZNSt12__shared_ptrI4CoreLN9__gnu_cxx12_Lock_policyE2EED2Ev	#
 1005      00
 1006              	.LBE13:
 1007 001c 90       		nop	
 1008 001d C9       		leave	
 1009              		.cfi_def_cfa 7, 8
 1010 001e C3       		ret	
 1011              		.cfi_endproc
 1012              	.LFE2459:
 1014              		.weak	_ZNSt10shared_ptrI4CoreED1Ev
 1015              		.set	_ZNSt10shared_ptrI4CoreED1Ev,_ZNSt10shared_ptrI4CoreED2Ev
 1016              		.section	.text._ZN7Complex3addE7VisitorSt10shared_ptrI4CoreE,"axG",@progbits,_ZN7Complex3addE7Visi
 1017              		.align 2
 1018              		.weak	_ZN7Complex3addE7VisitorSt10shared_ptrI4CoreE
 1020              	_ZN7Complex3addE7VisitorSt10shared_ptrI4CoreE:
 1021              	.LFB2442:
  41:test.cpp      **** 	sCore add(Visitor v, sCore c) override{
 1022              		.loc 6 41 8
 1023              		.cfi_startproc
 1024              		.cfi_personality 0x9b,DW.ref.__gxx_personality_v0
 1025              		.cfi_lsda 0x1b,.LLSDA2442
 1026 0000 F30F1EFA 		endbr64	
 1027 0004 55       		pushq	%rbp	#
 1028              		.cfi_def_cfa_offset 16
 1029              		.cfi_offset 6, -16
 1030 0005 4889E5   		movq	%rsp, %rbp	#,
 1031              		.cfi_def_cfa_register 6
 1032 0008 53       		pushq	%rbx	#
 1033 0009 4883EC58 		subq	$88, %rsp	#,
 1034              		.cfi_offset 3, -24
 1035 000d 48897DB8 		movq	%rdi, -72(%rbp)	# .result_ptr, .result_ptr
 1036 0011 488975B0 		movq	%rsi, -80(%rbp)	# this, this
 1037 0015 488955A8 		movq	%rdx, -88(%rbp)	# v, v
 1038 0019 48894DA0 		movq	%rcx, -96(%rbp)	# c, c
 1039              	# test.cpp:41: 	sCore add(Visitor v, sCore c) override{
 1040              		.loc 6 41 8
 1041 001d 64488B04 		movq	%fs:40, %rax	# MEM[(<address-space-1> long unsigned int *)40B], tmp99
 1041      25280000 
 1041      00
 1042 0026 488945E8 		movq	%rax, -24(%rbp)	# tmp99, D.54874
 1043 002a 31C0     		xorl	%eax, %eax	# tmp99
 1044              	# test.cpp:42: 		return v.add(*this, c);
  42:test.cpp      **** 		return v.add(*this, c);
 1045              		.loc 6 42 24
 1046 002c 488B55A0 		movq	-96(%rbp), %rdx	# c, tmp83
 1047 0030 488D45C0 		leaq	-64(%rbp), %rax	#, tmp84
 1048 0034 4889D6   		movq	%rdx, %rsi	# tmp83,
 1049 0037 4889C7   		movq	%rax, %rdi	# tmp84,
 1050 003a E8000000 		call	_ZNSt10shared_ptrI4CoreEC1ERKS1_	#
 1050      00
 1051 003f 488B55B0 		movq	-80(%rbp), %rdx	# this, tmp85
 1052 0043 488D45D0 		leaq	-48(%rbp), %rax	#, tmp86
 1053 0047 4889D6   		movq	%rdx, %rsi	# tmp85,
 1054 004a 4889C7   		movq	%rax, %rdi	# tmp86,
 1055 004d E8000000 		call	_ZN7ComplexC1ERKS_	#
 1055      00
 1056 0052 488B45B8 		movq	-72(%rbp), %rax	# <retval>, tmp87
 1057 0056 488D4DC0 		leaq	-64(%rbp), %rcx	#, tmp88
 1058 005a 488D55D0 		leaq	-48(%rbp), %rdx	#, tmp89
 1059 005e 488B75A8 		movq	-88(%rbp), %rsi	# v, tmp90
 1060 0062 4889C7   		movq	%rax, %rdi	# tmp87,
 1061              	.LEHB0:
 1062 0065 E8000000 		call	_ZN7Visitor3addI7ComplexEESt10shared_ptrI4CoreET_S4_	#
 1062      00
 1063              	.LEHE0:
 1064 006a 488D45D0 		leaq	-48(%rbp), %rax	#, tmp91
 1065 006e 4889C7   		movq	%rax, %rdi	# tmp91,
 1066 0071 E8000000 		call	_ZN7ComplexD1Ev	#
 1066      00
 1067 0076 488D45C0 		leaq	-64(%rbp), %rax	#, tmp92
 1068 007a 4889C7   		movq	%rax, %rdi	# tmp92,
 1069 007d E8000000 		call	_ZNSt10shared_ptrI4CoreED1Ev	#
 1069      00
 1070              	# test.cpp:43: 	}
  43:test.cpp      **** 	}
 1071              		.loc 6 43 2
 1072 0082 488B45E8 		movq	-24(%rbp), %rax	# D.54874, tmp100
 1073 0086 64483304 		xorq	%fs:40, %rax	# MEM[(<address-space-1> long unsigned int *)40B], tmp100
 1073      25280000 
 1073      00
 1074 008f 7431     		je	.L45	#,
 1075 0091 EB2A     		jmp	.L47	#
 1076              	.L46:
 1077 0093 F30F1EFA 		endbr64	
 1078 0097 4889C3   		movq	%rax, %rbx	#, tmp95
 1079              	# test.cpp:42: 		return v.add(*this, c);
  42:test.cpp      **** 		return v.add(*this, c);
 1080              		.loc 6 42 24
 1081 009a 488D45D0 		leaq	-48(%rbp), %rax	#, tmp93
 1082 009e 4889C7   		movq	%rax, %rdi	# tmp93,
 1083 00a1 E8000000 		call	_ZN7ComplexD1Ev	#
 1083      00
 1084 00a6 488D45C0 		leaq	-64(%rbp), %rax	#, tmp98
 1085 00aa 4889C7   		movq	%rax, %rdi	# tmp98,
 1086 00ad E8000000 		call	_ZNSt10shared_ptrI4CoreED1Ev	#
 1086      00
 1087 00b2 4889D8   		movq	%rbx, %rax	# tmp94, D.54873
 1088 00b5 4889C7   		movq	%rax, %rdi	# D.54873,
 1089              	.LEHB1:
 1090 00b8 E8000000 		call	_Unwind_Resume@PLT	#
 1090      00
 1091              	.LEHE1:
 1092              	.L47:
 1093              	# test.cpp:43: 	}
 1094              		.loc 6 43 2
 1095 00bd E8000000 		call	__stack_chk_fail@PLT	#
 1095      00
 1096              	.L45:
 1097 00c2 488B45B8 		movq	-72(%rbp), %rax	# <retval>,
 1098 00c6 4883C458 		addq	$88, %rsp	#,
 1099 00ca 5B       		popq	%rbx	#
 1100 00cb 5D       		popq	%rbp	#
 1101              		.cfi_def_cfa 7, 8
 1102 00cc C3       		ret	
 1103              		.cfi_endproc
 1104              	.LFE2442:
 1105              		.globl	__gxx_personality_v0
 1106              		.section	.gcc_except_table._ZN7Complex3addE7VisitorSt10shared_ptrI4CoreE,"aG",@progbits,_ZN7Comple
 1107              	.LLSDA2442:
 1108 0000 FF       		.byte	0xff
 1109 0001 FF       		.byte	0xff
 1110 0002 01       		.byte	0x1
 1111 0003 0A       		.uleb128 .LLSDACSE2442-.LLSDACSB2442
 1112              	.LLSDACSB2442:
 1113 0004 65       		.uleb128 .LEHB0-.LFB2442
 1114 0005 05       		.uleb128 .LEHE0-.LEHB0
 1115 0006 9301     		.uleb128 .L46-.LFB2442
 1116 0008 00       		.uleb128 0
 1117 0009 B801     		.uleb128 .LEHB1-.LFB2442
 1118 000b 05       		.uleb128 .LEHE1-.LEHB1
 1119 000c 00       		.uleb128 0
 1120 000d 00       		.uleb128 0
 1121              	.LLSDACSE2442:
 1122              		.section	.text._ZN7Complex3addE7VisitorSt10shared_ptrI4CoreE,"axG",@progbits,_ZN7Complex3addE7Visi
 1124              		.section	.text._ZNSt12__shared_ptrI7ComplexLN9__gnu_cxx12_Lock_policyE2EED2Ev,"axG",@progbits,_ZNS
 1125              		.align 2
 1126              		.weak	_ZNSt12__shared_ptrI7ComplexLN9__gnu_cxx12_Lock_policyE2EED2Ev
 1128              	_ZNSt12__shared_ptrI7ComplexLN9__gnu_cxx12_Lock_policyE2EED2Ev:
 1129              	.LFB2464:
 1130              		.loc 5 1169 7
 1131              		.cfi_startproc
 1132 0000 F30F1EFA 		endbr64	
 1133 0004 55       		pushq	%rbp	#
 1134              		.cfi_def_cfa_offset 16
 1135              		.cfi_offset 6, -16
 1136 0005 4889E5   		movq	%rsp, %rbp	#,
 1137              		.cfi_def_cfa_register 6
 1138 0008 4883EC10 		subq	$16, %rsp	#,
 1139 000c 48897DF8 		movq	%rdi, -8(%rbp)	# this, this
 1140              	.LBB14:
 1141              	# /usr/include/c++/9/bits/shared_ptr_base.h:1169:       ~__shared_ptr() = default;
 1142              		.loc 5 1169 7
 1143 0010 488B45F8 		movq	-8(%rbp), %rax	# this, tmp83
 1144 0014 4883C008 		addq	$8, %rax	#, _1
 1145 0018 4889C7   		movq	%rax, %rdi	# _1,
 1146 001b E8000000 		call	_ZNSt14__shared_countILN9__gnu_cxx12_Lock_policyE2EED1Ev	#
 1146      00
 1147              	.LBE14:
 1148 0020 90       		nop	
 1149 0021 C9       		leave	
 1150              		.cfi_def_cfa 7, 8
 1151 0022 C3       		ret	
 1152              		.cfi_endproc
 1153              	.LFE2464:
 1155              		.weak	_ZNSt12__shared_ptrI7ComplexLN9__gnu_cxx12_Lock_policyE2EED1Ev
 1156              		.set	_ZNSt12__shared_ptrI7ComplexLN9__gnu_cxx12_Lock_policyE2EED1Ev,_ZNSt12__shared_ptrI7ComplexLN
 1157              		.section	.text._ZNSt10shared_ptrI7ComplexED2Ev,"axG",@progbits,_ZNSt10shared_ptrI7ComplexED5Ev,com
 1158              		.align 2
 1159              		.weak	_ZNSt10shared_ptrI7ComplexED2Ev
 1161              	_ZNSt10shared_ptrI7ComplexED2Ev:
 1162              	.LFB2466:
 103:/usr/include/c++/9/bits/shared_ptr.h ****     {
 1163              		.loc 7 103 11
 1164              		.cfi_startproc
 1165 0000 F30F1EFA 		endbr64	
 1166 0004 55       		pushq	%rbp	#
 1167              		.cfi_def_cfa_offset 16
 1168              		.cfi_offset 6, -16
 1169 0005 4889E5   		movq	%rsp, %rbp	#,
 1170              		.cfi_def_cfa_register 6
 1171 0008 4883EC10 		subq	$16, %rsp	#,
 1172 000c 48897DF8 		movq	%rdi, -8(%rbp)	# this, this
 1173              	.LBB15:
 1174              	# /usr/include/c++/9/bits/shared_ptr.h:103:     class shared_ptr : public __shared_ptr<_Tp>
 103:/usr/include/c++/9/bits/shared_ptr.h ****     {
 1175              		.loc 7 103 11
 1176 0010 488B45F8 		movq	-8(%rbp), %rax	# this, _1
 1177 0014 4889C7   		movq	%rax, %rdi	# _1,
 1178 0017 E8000000 		call	_ZNSt12__shared_ptrI7ComplexLN9__gnu_cxx12_Lock_policyE2EED2Ev	#
 1178      00
 1179              	.LBE15:
 1180 001c 90       		nop	
 1181 001d C9       		leave	
 1182              		.cfi_def_cfa 7, 8
 1183 001e C3       		ret	
 1184              		.cfi_endproc
 1185              	.LFE2466:
 1187              		.weak	_ZNSt10shared_ptrI7ComplexED1Ev
 1188              		.set	_ZNSt10shared_ptrI7ComplexED1Ev,_ZNSt10shared_ptrI7ComplexED2Ev
 1189              		.section	.text._ZN7Complex4_addES_,"axG",@progbits,_ZN7Complex4_addES_,comdat
 1190              		.align 2
 1191              		.weak	_ZN7Complex4_addES_
 1193              	_ZN7Complex4_addES_:
 1194              	.LFB2461:
  44:test.cpp      **** 	sCore _add(Complex c) override {
 1195              		.loc 6 44 8
 1196              		.cfi_startproc
 1197 0000 F30F1EFA 		endbr64	
 1198 0004 55       		pushq	%rbp	#
 1199              		.cfi_def_cfa_offset 16
 1200              		.cfi_offset 6, -16
 1201 0005 4889E5   		movq	%rsp, %rbp	#,
 1202              		.cfi_def_cfa_register 6
 1203 0008 4883EC50 		subq	$80, %rsp	#,
 1204 000c 48897DC8 		movq	%rdi, -56(%rbp)	# .result_ptr, .result_ptr
 1205 0010 488975C0 		movq	%rsi, -64(%rbp)	# this, this
 1206 0014 488955B8 		movq	%rdx, -72(%rbp)	# c, c
 1207              	# test.cpp:44: 	sCore _add(Complex c) override {
 1208              		.loc 6 44 8
 1209 0018 64488B04 		movq	%fs:40, %rax	# MEM[(<address-space-1> long unsigned int *)40B], tmp98
 1209      25280000 
 1209      00
 1210 0021 488945F8 		movq	%rax, -8(%rbp)	# tmp98, D.54878
 1211 0025 31C0     		xorl	%eax, %eax	# tmp98
 1212              	# test.cpp:45: 		return std::make_shared<Complex>(real+c.real, imag+c.imag);
  45:test.cpp      **** 		return std::make_shared<Complex>(real+c.real, imag+c.imag);
 1213              		.loc 6 45 49
 1214 0027 488B45C0 		movq	-64(%rbp), %rax	# this, tmp88
 1215 002b F20F1048 		movsd	16(%rax), %xmm1	# this_8(D)->imag, _1
 1215      10
 1216              	# test.cpp:45: 		return std::make_shared<Complex>(real+c.real, imag+c.imag);
 1217              		.loc 6 45 56
 1218 0030 488B45B8 		movq	-72(%rbp), %rax	# c, tmp89
 1219 0034 F20F1040 		movsd	16(%rax), %xmm0	# c_9(D)->imag, _2
 1219      10
 1220              	# test.cpp:45: 		return std::make_shared<Complex>(real+c.real, imag+c.imag);
 1221              		.loc 6 45 53
 1222 0039 F20F58C1 		addsd	%xmm1, %xmm0	# _1, _3
 1223 003d F20F1145 		movsd	%xmm0, -40(%rbp)	# _3, D.48067
 1223      D8
 1224              	# test.cpp:45: 		return std::make_shared<Complex>(real+c.real, imag+c.imag);
 1225              		.loc 6 45 36
 1226 0042 488B45C0 		movq	-64(%rbp), %rax	# this, tmp90
 1227 0046 F20F1048 		movsd	8(%rax), %xmm1	# this_8(D)->real, _4
 1227      08
 1228              	# test.cpp:45: 		return std::make_shared<Complex>(real+c.real, imag+c.imag);
 1229              		.loc 6 45 43
 1230 004b 488B45B8 		movq	-72(%rbp), %rax	# c, tmp91
 1231 004f F20F1040 		movsd	8(%rax), %xmm0	# c_9(D)->real, _5
 1231      08
 1232              	# test.cpp:45: 		return std::make_shared<Complex>(real+c.real, imag+c.imag);
 1233              		.loc 6 45 40
 1234 0054 F20F58C1 		addsd	%xmm1, %xmm0	# _4, _6
 1235 0058 F20F1145 		movsd	%xmm0, -48(%rbp)	# _6, D.48066
 1235      D0
 1236              	# test.cpp:45: 		return std::make_shared<Complex>(real+c.real, imag+c.imag);
 1237              		.loc 6 45 35
 1238 005d 488D45E0 		leaq	-32(%rbp), %rax	#, tmp92
 1239 0061 488D55D8 		leaq	-40(%rbp), %rdx	#, tmp93
 1240 0065 488D4DD0 		leaq	-48(%rbp), %rcx	#, tmp94
 1241 0069 4889CE   		movq	%rcx, %rsi	# tmp94,
 1242 006c 4889C7   		movq	%rax, %rdi	# tmp92,
 1243 006f E8000000 		call	_ZSt11make_sharedI7ComplexJddEESt10shared_ptrIT_EDpOT0_	#
 1243      00
 1244              	# test.cpp:45: 		return std::make_shared<Complex>(real+c.real, imag+c.imag);
 1245              		.loc 6 45 60
 1246 0074 488D55E0 		leaq	-32(%rbp), %rdx	#, tmp95
 1247 0078 488B45C8 		movq	-56(%rbp), %rax	# <retval>, tmp96
 1248 007c 4889D6   		movq	%rdx, %rsi	# tmp95,
 1249 007f 4889C7   		movq	%rax, %rdi	# tmp96,
 1250 0082 E8000000 		call	_ZNSt10shared_ptrI4CoreEC1I7ComplexvEEOS_IT_E	#
 1250      00
 1251              	# test.cpp:45: 		return std::make_shared<Complex>(real+c.real, imag+c.imag);
 1252              		.loc 6 45 35
 1253 0087 488D45E0 		leaq	-32(%rbp), %rax	#, tmp97
 1254 008b 4889C7   		movq	%rax, %rdi	# tmp97,
 1255 008e E8000000 		call	_ZNSt10shared_ptrI7ComplexED1Ev	#
 1255      00
 1256              	# test.cpp:45: 		return std::make_shared<Complex>(real+c.real, imag+c.imag);
 1257              		.loc 6 45 60
 1258 0093 90       		nop	
 1259              	# test.cpp:46: 	}
  46:test.cpp      **** 	}
 1260              		.loc 6 46 2
 1261 0094 488B45F8 		movq	-8(%rbp), %rax	# D.54878, tmp99
 1262 0098 64483304 		xorq	%fs:40, %rax	# MEM[(<address-space-1> long unsigned int *)40B], tmp99
 1262      25280000 
 1262      00
 1263 00a1 7405     		je	.L52	#,
 1264 00a3 E8000000 		call	__stack_chk_fail@PLT	#
 1264      00
 1265              	.L52:
 1266 00a8 488B45C8 		movq	-56(%rbp), %rax	# <retval>,
 1267 00ac C9       		leave	
 1268              		.cfi_def_cfa 7, 8
 1269 00ad C3       		ret	
 1270              		.cfi_endproc
 1271              	.LFE2461:
 1273              		.section	.rodata
 1274              	.LC0:
 1275 000a 2C2000   		.string	", "
 1276              	.LC1:
 1277 000d 69290A00 		.string	"i)\n"
 1278              		.section	.text._ZN7Complex5printEv,"axG",@progbits,_ZN7Complex5printEv,comdat
 1279              		.align 2
 1280              		.weak	_ZN7Complex5printEv
 1282              	_ZN7Complex5printEv:
 1283              	.LFB2468:
  47:test.cpp      **** 	//sCore add(Visitor v, Complex c) override{
  48:test.cpp      **** 	//	return v.add(*this, c);
  49:test.cpp      **** 	//}
  50:test.cpp      **** 	void print() override{
 1284              		.loc 6 50 7
 1285              		.cfi_startproc
 1286 0000 F30F1EFA 		endbr64	
 1287 0004 55       		pushq	%rbp	#
 1288              		.cfi_def_cfa_offset 16
 1289              		.cfi_offset 6, -16
 1290 0005 4889E5   		movq	%rsp, %rbp	#,
 1291              		.cfi_def_cfa_register 6
 1292 0008 4883EC10 		subq	$16, %rsp	#,
 1293 000c 48897DF8 		movq	%rdi, -8(%rbp)	# this, this
 1294              	# test.cpp:51: 		std::cout << '(' << real << ", " << imag << "i)\n";
  51:test.cpp      **** 		std::cout << '(' << real << ", " << imag << "i)\n";
 1295              		.loc 6 51 16
 1296 0010 BE280000 		movl	$40, %esi	#,
 1296      00
 1297 0015 488D3D00 		leaq	_ZSt4cout(%rip), %rdi	#,
 1297      000000
 1298 001c E8000000 		call	_ZStlsISt11char_traitsIcEERSt13basic_ostreamIcT_ES5_c@PLT	#
 1298      00
 1299 0021 4889C2   		movq	%rax, %rdx	#, _1
 1300              	# test.cpp:51: 		std::cout << '(' << real << ", " << imag << "i)\n";
 1301              		.loc 6 51 23
 1302 0024 488B45F8 		movq	-8(%rbp), %rax	# this, tmp88
 1303 0028 488B4008 		movq	8(%rax), %rax	# this_10(D)->real, _2
 1304 002c 66480F6E 		movq	%rax, %xmm0	# _2,
 1304      C0
 1305 0031 4889D7   		movq	%rdx, %rdi	# _1,
 1306 0034 E8000000 		call	_ZNSolsEd@PLT	#
 1306      00
 1307              	# test.cpp:51: 		std::cout << '(' << real << ", " << imag << "i)\n";
 1308              		.loc 6 51 31
 1309 0039 488D3500 		leaq	.LC0(%rip), %rsi	#,
 1309      000000
 1310 0040 4889C7   		movq	%rax, %rdi	# _3,
 1311 0043 E8000000 		call	_ZStlsISt11char_traitsIcEERSt13basic_ostreamIcT_ES5_PKc@PLT	#
 1311      00
 1312 0048 4889C2   		movq	%rax, %rdx	#, _4
 1313              	# test.cpp:51: 		std::cout << '(' << real << ", " << imag << "i)\n";
 1314              		.loc 6 51 39
 1315 004b 488B45F8 		movq	-8(%rbp), %rax	# this, tmp89
 1316 004f 488B4010 		movq	16(%rax), %rax	# this_10(D)->imag, _5
 1317 0053 66480F6E 		movq	%rax, %xmm0	# _5,
 1317      C0
 1318 0058 4889D7   		movq	%rdx, %rdi	# _4,
 1319 005b E8000000 		call	_ZNSolsEd@PLT	#
 1319      00
 1320              	# test.cpp:51: 		std::cout << '(' << real << ", " << imag << "i)\n";
 1321              		.loc 6 51 47
 1322 0060 488D3500 		leaq	.LC1(%rip), %rsi	#,
 1322      000000
 1323 0067 4889C7   		movq	%rax, %rdi	# _6,
 1324 006a E8000000 		call	_ZStlsISt11char_traitsIcEERSt13basic_ostreamIcT_ES5_PKc@PLT	#
 1324      00
 1325              	# test.cpp:52: 	};
  52:test.cpp      **** 	};
 1326              		.loc 6 52 2
 1327 006f 90       		nop	
 1328 0070 C9       		leave	
 1329              		.cfi_def_cfa 7, 8
 1330 0071 C3       		ret	
 1331              		.cfi_endproc
 1332              	.LFE2468:
 1334              		.section	.text._ZN7VisitorC2ERKS_,"axG",@progbits,_ZN7VisitorC5ERKS_,comdat
 1335              		.align 2
 1336              		.weak	_ZN7VisitorC2ERKS_
 1338              	_ZN7VisitorC2ERKS_:
 1339              	.LFB2472:
  13:test.cpp      **** 	Visitor(){}
 1340              		.loc 6 13 8
 1341              		.cfi_startproc
 1342 0000 F30F1EFA 		endbr64	
 1343 0004 55       		pushq	%rbp	#
 1344              		.cfi_def_cfa_offset 16
 1345              		.cfi_offset 6, -16
 1346 0005 4889E5   		movq	%rsp, %rbp	#,
 1347              		.cfi_def_cfa_register 6
 1348 0008 48897DF8 		movq	%rdi, -8(%rbp)	# this, this
 1349 000c 488975F0 		movq	%rsi, -16(%rbp)	# D.49299, D.49299
 1350              	.LBB16:
 1351              	# test.cpp:13: struct Visitor{
  13:test.cpp      **** 	Visitor(){}
 1352              		.loc 6 13 8
 1353 0010 488D1500 		leaq	16+_ZTV7Visitor(%rip), %rdx	#, _1
 1353      000000
 1354 0017 488B45F8 		movq	-8(%rbp), %rax	# this, tmp83
 1355 001b 488910   		movq	%rdx, (%rax)	# _1, this_3(D)->_vptr.Visitor
 1356              	.LBE16:
 1357 001e 90       		nop	
 1358 001f 5D       		popq	%rbp	#
 1359              		.cfi_def_cfa 7, 8
 1360 0020 C3       		ret	
 1361              		.cfi_endproc
 1362              	.LFE2472:
 1364              		.weak	_ZN7VisitorC1ERKS_
 1365              		.set	_ZN7VisitorC1ERKS_,_ZN7VisitorC2ERKS_
 1366              		.text
 1367              		.globl	main
 1369              	main:
 1370              	.LFB2470:
  53:test.cpp      **** };
  54:test.cpp      **** 
  55:test.cpp      **** template<typename T>
  56:test.cpp      **** sCore Visitor::add(T t, sCore c2){
  57:test.cpp      **** 	return c2->_add(t);
  58:test.cpp      **** };
  59:test.cpp      **** 
  60:test.cpp      **** int main(){
 1371              		.loc 6 60 11
 1372              		.cfi_startproc
 1373              		.cfi_personality 0x9b,DW.ref.__gxx_personality_v0
 1374              		.cfi_lsda 0x1b,.LLSDA2470
 1375 001f F30F1EFA 		endbr64	
 1376 0023 55       		pushq	%rbp	#
 1377              		.cfi_def_cfa_offset 16
 1378              		.cfi_offset 6, -16
 1379 0024 4889E5   		movq	%rsp, %rbp	#,
 1380              		.cfi_def_cfa_register 6
 1381 0027 4154     		pushq	%r12	#
 1382 0029 53       		pushq	%rbx	#
 1383 002a 4883EC60 		subq	$96, %rsp	#,
 1384              		.cfi_offset 12, -24
 1385              		.cfi_offset 3, -32
 1386              	# test.cpp:60: int main(){
 1387              		.loc 6 60 11
 1388 002e 64488B04 		movq	%fs:40, %rax	# MEM[(<address-space-1> long unsigned int *)40B], tmp148
 1388      25280000 
 1388      00
 1389 0037 488945E8 		movq	%rax, -24(%rbp)	# tmp148, D.54885
 1390 003b 31C0     		xorl	%eax, %eax	# tmp148
 1391              	# test.cpp:62: 	Visitor v;
  61:test.cpp      **** 	//std::cout << "START\n";
  62:test.cpp      **** 	Visitor v;
 1392              		.loc 6 62 10
 1393 003d 488D4590 		leaq	-112(%rbp), %rax	#, tmp101
 1394 0041 4889C7   		movq	%rax, %rdi	# tmp101,
 1395 0044 E8000000 		call	_ZN7VisitorC1Ev	#
 1395      00
 1396              	# test.cpp:66: 	sComp a=std::make_shared<Complex>(3.0, 5.0);
  63:test.cpp      **** 	//sV sv{v};
  64:test.cpp      **** 	//Complex a(3.0, 5.0);
  65:test.cpp      **** 
  66:test.cpp      **** 	sComp a=std::make_shared<Complex>(3.0, 5.0);
 1397              		.loc 6 66 41
 1398 0049 F20F1005 		movsd	.LC2(%rip), %xmm0	#, tmp102
 1398      00000000 
 1399 0051 F20F1145 		movsd	%xmm0, -48(%rbp)	# tmp102, D.49302
 1399      D0
 1400              	# test.cpp:66: 	sComp a=std::make_shared<Complex>(3.0, 5.0);
 1401              		.loc 6 66 36
 1402 0056 F20F1005 		movsd	.LC3(%rip), %xmm0	#, tmp103
 1402      00000000 
 1403 005e F20F1145 		movsd	%xmm0, -64(%rbp)	# tmp103, D.49301
 1403      C0
 1404              	# test.cpp:66: 	sComp a=std::make_shared<Complex>(3.0, 5.0);
 1405              		.loc 6 66 44
 1406 0063 488D45A0 		leaq	-96(%rbp), %rax	#, tmp104
 1407 0067 488D55D0 		leaq	-48(%rbp), %rdx	#, tmp105
 1408 006b 488D4DC0 		leaq	-64(%rbp), %rcx	#, tmp106
 1409 006f 4889CE   		movq	%rcx, %rsi	# tmp106,
 1410 0072 4889C7   		movq	%rax, %rdi	# tmp104,
 1411              	.LEHB2:
 1412 0075 E8000000 		call	_ZSt11make_sharedI7ComplexJddEESt10shared_ptrIT_EDpOT0_	#
 1412      00
 1413              	.LEHE2:
 1414              	# test.cpp:67: 	sComp b=std::make_shared<Complex>(7.0, 11.0);
  67:test.cpp      **** 	sComp b=std::make_shared<Complex>(7.0, 11.0);
 1415              		.loc 6 67 41 discriminator 1
 1416 007a F20F1005 		movsd	.LC4(%rip), %xmm0	#, tmp107
 1416      00000000 
 1417 0082 F20F1145 		movsd	%xmm0, -48(%rbp)	# tmp107, D.49339
 1417      D0
 1418              	# test.cpp:67: 	sComp b=std::make_shared<Complex>(7.0, 11.0);
 1419              		.loc 6 67 36 discriminator 1
 1420 0087 F20F1005 		movsd	.LC5(%rip), %xmm0	#, tmp108
 1420      00000000 
 1421 008f F20F1145 		movsd	%xmm0, -64(%rbp)	# tmp108, D.49338
 1421      C0
 1422              	# test.cpp:67: 	sComp b=std::make_shared<Complex>(7.0, 11.0);
 1423              		.loc 6 67 45 discriminator 1
 1424 0094 488D45B0 		leaq	-80(%rbp), %rax	#, tmp109
 1425 0098 488D55D0 		leaq	-48(%rbp), %rdx	#, tmp110
 1426 009c 488D4DC0 		leaq	-64(%rbp), %rcx	#, tmp111
 1427 00a0 4889CE   		movq	%rcx, %rsi	# tmp111,
 1428 00a3 4889C7   		movq	%rax, %rdi	# tmp109,
 1429              	.LEHB3:
 1430 00a6 E8000000 		call	_ZSt11make_sharedI7ComplexJddEESt10shared_ptrIT_EDpOT0_	#
 1430      00
 1431              	.LEHE3:
 1432              	# test.cpp:70: 	sCore x=a->add(v, b);
  68:test.cpp      **** 	//sCore c1=a;
  69:test.cpp      **** 	//sCore c2=b;
  70:test.cpp      **** 	sCore x=a->add(v, b);
 1433              		.loc 6 70 11 discriminator 1
 1434 00ab 488D45A0 		leaq	-96(%rbp), %rax	#, tmp112
 1435 00af 4889C7   		movq	%rax, %rdi	# tmp112,
 1436 00b2 E8000000 		call	_ZNKSt19__shared_ptr_accessI7ComplexLN9__gnu_cxx12_Lock_policyE2ELb0ELb0EEptEv	#
 1436      00
 1437 00b7 4889C3   		movq	%rax, %rbx	#, _30
 1438              	# test.cpp:70: 	sCore x=a->add(v, b);
 1439              		.loc 6 70 21 discriminator 1
 1440 00ba 488B03   		movq	(%rbx), %rax	# _30->D.46476._vptr.Core, _1
 1441 00bd 4883C018 		addq	$24, %rax	#, _2
 1442 00c1 4C8B20   		movq	(%rax), %r12	# *_2, _3
 1443 00c4 488D55B0 		leaq	-80(%rbp), %rdx	#, tmp113
 1444 00c8 488D45D0 		leaq	-48(%rbp), %rax	#, tmp114
 1445 00cc 4889D6   		movq	%rdx, %rsi	# tmp113,
 1446 00cf 4889C7   		movq	%rax, %rdi	# tmp114,
 1447 00d2 E8000000 		call	_ZNSt10shared_ptrI4CoreEC1I7ComplexvEERKS_IT_E	#
 1447      00
 1448 00d7 488D5590 		leaq	-112(%rbp), %rdx	#, tmp115
 1449 00db 488D4598 		leaq	-104(%rbp), %rax	#, tmp116
 1450 00df 4889D6   		movq	%rdx, %rsi	# tmp115,
 1451 00e2 4889C7   		movq	%rax, %rdi	# tmp116,
 1452 00e5 E8000000 		call	_ZN7VisitorC1ERKS_	#
 1452      00
 1453 00ea 488D45C0 		leaq	-64(%rbp), %rax	#, tmp117
 1454 00ee 488D4DD0 		leaq	-48(%rbp), %rcx	#, tmp118
 1455 00f2 488D5598 		leaq	-104(%rbp), %rdx	#, tmp119
 1456 00f6 4889DE   		movq	%rbx, %rsi	# _30,
 1457 00f9 4889C7   		movq	%rax, %rdi	# tmp117,
 1458              	.LEHB4:
 1459 00fc 41FFD4   		call	*%r12	# _3
 1460              	.LVL0:
 1461              	.LEHE4:
 1462 00ff 488D4598 		leaq	-104(%rbp), %rax	#, tmp120
 1463 0103 4889C7   		movq	%rax, %rdi	# tmp120,
 1464 0106 E8000000 		call	_ZN7VisitorD1Ev	#
 1464      00
 1465 010b 488D45D0 		leaq	-48(%rbp), %rax	#, tmp121
 1466 010f 4889C7   		movq	%rax, %rdi	# tmp121,
 1467 0112 E8000000 		call	_ZNSt10shared_ptrI4CoreED1Ev	#
 1467      00
 1468              	# test.cpp:71: 	a->print();
  71:test.cpp      **** 	a->print();
 1469              		.loc 6 71 3
 1470 0117 488D45A0 		leaq	-96(%rbp), %rax	#, tmp122
 1471 011b 4889C7   		movq	%rax, %rdi	# tmp122,
 1472 011e E8000000 		call	_ZNKSt19__shared_ptr_accessI7ComplexLN9__gnu_cxx12_Lock_policyE2ELb0ELb0EEptEv	#
 1472      00
 1473              	# test.cpp:71: 	a->print();
 1474              		.loc 6 71 11
 1475 0123 488B10   		movq	(%rax), %rdx	# _39->D.46476._vptr.Core, _4
 1476 0126 4883C210 		addq	$16, %rdx	#, _5
 1477 012a 488B12   		movq	(%rdx), %rdx	# *_5, _6
 1478              	# test.cpp:71: 	a->print();
 1479              		.loc 6 71 10
 1480 012d 4889C7   		movq	%rax, %rdi	# _39,
 1481              	.LEHB5:
 1482 0130 FFD2     		call	*%rdx	# _6
 1483              	.LVL1:
 1484              	# test.cpp:72: 	b->print();
  72:test.cpp      **** 	b->print();
 1485              		.loc 6 72 3
 1486 0132 488D45B0 		leaq	-80(%rbp), %rax	#, tmp123
 1487 0136 4889C7   		movq	%rax, %rdi	# tmp123,
 1488 0139 E8000000 		call	_ZNKSt19__shared_ptr_accessI7ComplexLN9__gnu_cxx12_Lock_policyE2ELb0ELb0EEptEv	#
 1488      00
 1489              	# test.cpp:72: 	b->print();
 1490              		.loc 6 72 11
 1491 013e 488B10   		movq	(%rax), %rdx	# _42->D.46476._vptr.Core, _7
 1492 0141 4883C210 		addq	$16, %rdx	#, _8
 1493 0145 488B12   		movq	(%rdx), %rdx	# *_8, _9
 1494              	# test.cpp:72: 	b->print();
 1495              		.loc 6 72 10
 1496 0148 4889C7   		movq	%rax, %rdi	# _42,
 1497 014b FFD2     		call	*%rdx	# _9
 1498              	.LVL2:
 1499              	# test.cpp:73: 	x->print();
  73:test.cpp      **** 	x->print();
 1500              		.loc 6 73 3
 1501 014d 488D45C0 		leaq	-64(%rbp), %rax	#, tmp124
 1502 0151 4889C7   		movq	%rax, %rdi	# tmp124,
 1503 0154 E8000000 		call	_ZNKSt19__shared_ptr_accessI4CoreLN9__gnu_cxx12_Lock_policyE2ELb0ELb0EEptEv	#
 1503      00
 1504              	# test.cpp:73: 	x->print();
 1505              		.loc 6 73 11
 1506 0159 488B10   		movq	(%rax), %rdx	# _45->_vptr.Core, _10
 1507 015c 4883C210 		addq	$16, %rdx	#, _11
 1508 0160 488B12   		movq	(%rdx), %rdx	# *_11, _12
 1509              	# test.cpp:73: 	x->print();
 1510              		.loc 6 73 10
 1511 0163 4889C7   		movq	%rax, %rdi	# _45,
 1512 0166 FFD2     		call	*%rdx	# _12
 1513              	.LVL3:
 1514              	.LEHE5:
 1515              	# test.cpp:74: 	return 0;
  74:test.cpp      **** 	return 0;
 1516              		.loc 6 74 9
 1517 0168 BB000000 		movl	$0, %ebx	#, _47
 1517      00
 1518              	# test.cpp:70: 	sCore x=a->add(v, b);
  70:test.cpp      **** 	a->print();
 1519              		.loc 6 70 21
 1520 016d 488D45C0 		leaq	-64(%rbp), %rax	#, tmp125
 1521 0171 4889C7   		movq	%rax, %rdi	# tmp125,
 1522 0174 E8000000 		call	_ZNSt10shared_ptrI4CoreED1Ev	#
 1522      00
 1523              	# test.cpp:67: 	sComp b=std::make_shared<Complex>(7.0, 11.0);
  67:test.cpp      **** 	//sCore c1=a;
 1524              		.loc 6 67 45
 1525 0179 488D45B0 		leaq	-80(%rbp), %rax	#, tmp126
 1526 017d 4889C7   		movq	%rax, %rdi	# tmp126,
 1527 0180 E8000000 		call	_ZNSt10shared_ptrI7ComplexED1Ev	#
 1527      00
 1528              	# test.cpp:66: 	sComp a=std::make_shared<Complex>(3.0, 5.0);
  66:test.cpp      **** 	sComp b=std::make_shared<Complex>(7.0, 11.0);
 1529              		.loc 6 66 44
 1530 0185 488D45A0 		leaq	-96(%rbp), %rax	#, tmp127
 1531 0189 4889C7   		movq	%rax, %rdi	# tmp127,
 1532 018c E8000000 		call	_ZNSt10shared_ptrI7ComplexED1Ev	#
 1532      00
 1533              	# test.cpp:62: 	Visitor v;
  62:test.cpp      **** 	//sV sv{v};
 1534              		.loc 6 62 10
 1535 0191 488D4590 		leaq	-112(%rbp), %rax	#, tmp128
 1536 0195 4889C7   		movq	%rax, %rdi	# tmp128,
 1537 0198 E8000000 		call	_ZN7VisitorD1Ev	#
 1537      00
 1538 019d 89D8     		movl	%ebx, %eax	# _47, <retval>
 1539              	# test.cpp:75: }
  75:test.cpp      **** }
 1540              		.loc 6 75 1
 1541 019f 488B75E8 		movq	-24(%rbp), %rsi	# D.54885, tmp149
 1542 01a3 64483334 		xorq	%fs:40, %rsi	# MEM[(<address-space-1> long unsigned int *)40B], tmp149
 1542      25280000 
 1542      00
 1543 01ac 747C     		je	.L62	#,
 1544 01ae EB75     		jmp	.L67	#
 1545              	.L65:
 1546 01b0 F30F1EFA 		endbr64	
 1547 01b4 4889C3   		movq	%rax, %rbx	#, tmp132
 1548 01b7 488D4598 		leaq	-104(%rbp), %rax	#, tmp130
 1549 01bb 4889C7   		movq	%rax, %rdi	# tmp130,
 1550 01be E8000000 		call	_ZN7VisitorD1Ev	#
 1550      00
 1551 01c3 488D45D0 		leaq	-48(%rbp), %rax	#, tmp135
 1552 01c7 4889C7   		movq	%rax, %rdi	# tmp135,
 1553 01ca E8000000 		call	_ZNSt10shared_ptrI4CoreED1Ev	#
 1553      00
 1554 01cf EB13     		jmp	.L58	#
 1555              	.L66:
 1556 01d1 F30F1EFA 		endbr64	
 1557 01d5 4889C3   		movq	%rax, %rbx	#, tmp139
 1558              	# test.cpp:70: 	sCore x=a->add(v, b);
  70:test.cpp      **** 	a->print();
 1559              		.loc 6 70 21
 1560 01d8 488D45C0 		leaq	-64(%rbp), %rax	#, tmp138
 1561 01dc 4889C7   		movq	%rax, %rdi	# tmp138,
 1562 01df E8000000 		call	_ZNSt10shared_ptrI4CoreED1Ev	#
 1562      00
 1563              	.L58:
 1564              	# test.cpp:67: 	sComp b=std::make_shared<Complex>(7.0, 11.0);
  67:test.cpp      **** 	//sCore c1=a;
 1565              		.loc 6 67 45
 1566 01e4 488D45B0 		leaq	-80(%rbp), %rax	#, tmp141
 1567 01e8 4889C7   		movq	%rax, %rdi	# tmp141,
 1568 01eb E8000000 		call	_ZNSt10shared_ptrI7ComplexED1Ev	#
 1568      00
 1569 01f0 EB07     		jmp	.L60	#
 1570              	.L64:
 1571 01f2 F30F1EFA 		endbr64	
 1572 01f6 4889C3   		movq	%rax, %rbx	#, tmp142
 1573              	.L60:
 1574              	# test.cpp:66: 	sComp a=std::make_shared<Complex>(3.0, 5.0);
  66:test.cpp      **** 	sComp b=std::make_shared<Complex>(7.0, 11.0);
 1575              		.loc 6 66 44
 1576 01f9 488D45A0 		leaq	-96(%rbp), %rax	#, tmp144
 1577 01fd 4889C7   		movq	%rax, %rdi	# tmp144,
 1578 0200 E8000000 		call	_ZNSt10shared_ptrI7ComplexED1Ev	#
 1578      00
 1579 0205 EB07     		jmp	.L61	#
 1580              	.L63:
 1581 0207 F30F1EFA 		endbr64	
 1582 020b 4889C3   		movq	%rax, %rbx	#, tmp145
 1583              	.L61:
 1584              	# test.cpp:62: 	Visitor v;
  62:test.cpp      **** 	//sV sv{v};
 1585              		.loc 6 62 10
 1586 020e 488D4590 		leaq	-112(%rbp), %rax	#, tmp147
 1587 0212 4889C7   		movq	%rax, %rdi	# tmp147,
 1588 0215 E8000000 		call	_ZN7VisitorD1Ev	#
 1588      00
 1589 021a 4889D8   		movq	%rbx, %rax	# tmp145, D.54883
 1590 021d 4889C7   		movq	%rax, %rdi	# D.54883,
 1591              	.LEHB6:
 1592 0220 E8000000 		call	_Unwind_Resume@PLT	#
 1592      00
 1593              	.LEHE6:
 1594              	.L67:
 1595              	# test.cpp:75: }
 1596              		.loc 6 75 1
 1597 0225 E8000000 		call	__stack_chk_fail@PLT	#
 1597      00
 1598              	.L62:
 1599 022a 4883C460 		addq	$96, %rsp	#,
 1600 022e 5B       		popq	%rbx	#
 1601 022f 415C     		popq	%r12	#
 1602 0231 5D       		popq	%rbp	#
 1603              		.cfi_def_cfa 7, 8
 1604 0232 C3       		ret	
 1605              		.cfi_endproc
 1606              	.LFE2470:
 1607              		.section	.gcc_except_table,"a",@progbits
 1608              	.LLSDA2470:
 1609 0000 FF       		.byte	0xff
 1610 0001 FF       		.byte	0xff
 1611 0002 01       		.byte	0x1
 1612 0003 1C       		.uleb128 .LLSDACSE2470-.LLSDACSB2470
 1613              	.LLSDACSB2470:
 1614 0004 56       		.uleb128 .LEHB2-.LFB2470
 1615 0005 05       		.uleb128 .LEHE2-.LEHB2
 1616 0006 E803     		.uleb128 .L63-.LFB2470
 1617 0008 00       		.uleb128 0
 1618 0009 8701     		.uleb128 .LEHB3-.LFB2470
 1619 000b 05       		.uleb128 .LEHE3-.LEHB3
 1620 000c D303     		.uleb128 .L64-.LFB2470
 1621 000e 00       		.uleb128 0
 1622 000f DD01     		.uleb128 .LEHB4-.LFB2470
 1623 0011 03       		.uleb128 .LEHE4-.LEHB4
 1624 0012 9103     		.uleb128 .L65-.LFB2470
 1625 0014 00       		.uleb128 0
 1626 0015 9102     		.uleb128 .LEHB5-.LFB2470
 1627 0017 38       		.uleb128 .LEHE5-.LEHB5
 1628 0018 B203     		.uleb128 .L66-.LFB2470
 1629 001a 00       		.uleb128 0
 1630 001b 8104     		.uleb128 .LEHB6-.LFB2470
 1631 001d 05       		.uleb128 .LEHE6-.LEHB6
 1632 001e 00       		.uleb128 0
 1633 001f 00       		.uleb128 0
 1634              	.LLSDACSE2470:
 1635              		.text
 1637              		.section	.text._ZNSt14__shared_countILN9__gnu_cxx12_Lock_policyE2EEC2ERKS2_,"axG",@progbits,_ZNSt1
 1638              		.align 2
 1639              		.weak	_ZNSt14__shared_countILN9__gnu_cxx12_Lock_policyE2EEC2ERKS2_
 1641              	_ZNSt14__shared_countILN9__gnu_cxx12_Lock_policyE2EEC2ERKS2_:
 1642              	.LFB2713:
 733:/usr/include/c++/9/bits/shared_ptr_base.h ****       : _M_pi(__r._M_pi)
 1643              		.loc 5 733 7
 1644              		.cfi_startproc
 1645 0000 F30F1EFA 		endbr64	
 1646 0004 55       		pushq	%rbp	#
 1647              		.cfi_def_cfa_offset 16
 1648              		.cfi_offset 6, -16
 1649 0005 4889E5   		movq	%rsp, %rbp	#,
 1650              		.cfi_def_cfa_register 6
 1651 0008 4883EC10 		subq	$16, %rsp	#,
 1652 000c 48897DF8 		movq	%rdi, -8(%rbp)	# this, this
 1653 0010 488975F0 		movq	%rsi, -16(%rbp)	# __r, __r
 1654              	.LBB17:
 1655              	# /usr/include/c++/9/bits/shared_ptr_base.h:734:       : _M_pi(__r._M_pi)
 734:/usr/include/c++/9/bits/shared_ptr_base.h ****       {
 1656              		.loc 5 734 19
 1657 0014 488B45F0 		movq	-16(%rbp), %rax	# __r, tmp85
 1658 0018 488B10   		movq	(%rax), %rdx	# __r_8(D)->_M_pi, _1
 1659              	# /usr/include/c++/9/bits/shared_ptr_base.h:734:       : _M_pi(__r._M_pi)
 734:/usr/include/c++/9/bits/shared_ptr_base.h ****       {
 1660              		.loc 5 734 24
 1661 001b 488B45F8 		movq	-8(%rbp), %rax	# this, tmp86
 1662 001f 488910   		movq	%rdx, (%rax)	# _1, this_6(D)->_M_pi
 1663              	# /usr/include/c++/9/bits/shared_ptr_base.h:736: 	if (_M_pi != 0)
 736:/usr/include/c++/9/bits/shared_ptr_base.h **** 	  _M_pi->_M_add_ref_copy();
 1664              		.loc 5 736 6
 1665 0022 488B45F8 		movq	-8(%rbp), %rax	# this, tmp87
 1666 0026 488B00   		movq	(%rax), %rax	# this_6(D)->_M_pi, _2
 1667              	# /usr/include/c++/9/bits/shared_ptr_base.h:736: 	if (_M_pi != 0)
 736:/usr/include/c++/9/bits/shared_ptr_base.h **** 	  _M_pi->_M_add_ref_copy();
 1668              		.loc 5 736 2
 1669 0029 4885C0   		testq	%rax, %rax	# _2
 1670 002c 740F     		je	.L70	#,
 1671              	# /usr/include/c++/9/bits/shared_ptr_base.h:737: 	  _M_pi->_M_add_ref_copy();
 737:/usr/include/c++/9/bits/shared_ptr_base.h ****       }
 1672              		.loc 5 737 4
 1673 002e 488B45F8 		movq	-8(%rbp), %rax	# this, tmp88
 1674 0032 488B00   		movq	(%rax), %rax	# this_6(D)->_M_pi, _3
 1675 0035 4889C7   		movq	%rax, %rdi	# _3,
 1676 0038 E8000000 		call	_ZNSt16_Sp_counted_baseILN9__gnu_cxx12_Lock_policyE2EE15_M_add_ref_copyEv	#
 1676      00
 1677              	.L70:
 1678              	.LBE17:
 1679              	# /usr/include/c++/9/bits/shared_ptr_base.h:738:       }
 738:/usr/include/c++/9/bits/shared_ptr_base.h **** 
 1680              		.loc 5 738 7
 1681 003d 90       		nop	
 1682 003e C9       		leave	
 1683              		.cfi_def_cfa 7, 8
 1684 003f C3       		ret	
 1685              		.cfi_endproc
 1686              	.LFE2713:
 1688              		.weak	_ZNSt14__shared_countILN9__gnu_cxx12_Lock_policyE2EEC1ERKS2_
 1689              		.set	_ZNSt14__shared_countILN9__gnu_cxx12_Lock_policyE2EEC1ERKS2_,_ZNSt14__shared_countILN9__gnu_c
 1690              		.section	.text._ZNSt14__shared_countILN9__gnu_cxx12_Lock_policyE2EED2Ev,"axG",@progbits,_ZNSt14__s
 1691              		.align 2
 1692              		.weak	_ZNSt14__shared_countILN9__gnu_cxx12_Lock_policyE2EED2Ev
 1694              	_ZNSt14__shared_countILN9__gnu_cxx12_Lock_policyE2EED2Ev:
 1695              	.LFB2716:
 727:/usr/include/c++/9/bits/shared_ptr_base.h ****       {
 1696              		.loc 5 727 7
 1697              		.cfi_startproc
 1698 0000 F30F1EFA 		endbr64	
 1699 0004 55       		pushq	%rbp	#
 1700              		.cfi_def_cfa_offset 16
 1701              		.cfi_offset 6, -16
 1702 0005 4889E5   		movq	%rsp, %rbp	#,
 1703              		.cfi_def_cfa_register 6
 1704 0008 4883EC10 		subq	$16, %rsp	#,
 1705 000c 48897DF8 		movq	%rdi, -8(%rbp)	# this, this
 1706              	.LBB18:
 1707              	# /usr/include/c++/9/bits/shared_ptr_base.h:729: 	if (_M_pi != nullptr)
 729:/usr/include/c++/9/bits/shared_ptr_base.h **** 	  _M_pi->_M_release();
 1708              		.loc 5 729 6
 1709 0010 488B45F8 		movq	-8(%rbp), %rax	# this, tmp84
 1710 0014 488B00   		movq	(%rax), %rax	# this_5(D)->_M_pi, _1
 1711              	# /usr/include/c++/9/bits/shared_ptr_base.h:729: 	if (_M_pi != nullptr)
 729:/usr/include/c++/9/bits/shared_ptr_base.h **** 	  _M_pi->_M_release();
 1712              		.loc 5 729 2
 1713 0017 4885C0   		testq	%rax, %rax	# _1
 1714 001a 740F     		je	.L73	#,
 1715              	# /usr/include/c++/9/bits/shared_ptr_base.h:730: 	  _M_pi->_M_release();
 730:/usr/include/c++/9/bits/shared_ptr_base.h ****       }
 1716              		.loc 5 730 4
 1717 001c 488B45F8 		movq	-8(%rbp), %rax	# this, tmp85
 1718 0020 488B00   		movq	(%rax), %rax	# this_5(D)->_M_pi, _2
 1719 0023 4889C7   		movq	%rax, %rdi	# _2,
 1720 0026 E8000000 		call	_ZNSt16_Sp_counted_baseILN9__gnu_cxx12_Lock_policyE2EE10_M_releaseEv	#
 1720      00
 1721              	.L73:
 1722              	.LBE18:
 1723              	# /usr/include/c++/9/bits/shared_ptr_base.h:731:       }
 731:/usr/include/c++/9/bits/shared_ptr_base.h **** 
 1724              		.loc 5 731 7
 1725 002b 90       		nop	
 1726 002c C9       		leave	
 1727              		.cfi_def_cfa 7, 8
 1728 002d C3       		ret	
 1729              		.cfi_endproc
 1730              	.LFE2716:
 1732              		.weak	_ZNSt14__shared_countILN9__gnu_cxx12_Lock_policyE2EED1Ev
 1733              		.set	_ZNSt14__shared_countILN9__gnu_cxx12_Lock_policyE2EED1Ev,_ZNSt14__shared_countILN9__gnu_cxx12
 1734              		.section	.text._ZN7Visitor3addI7ComplexEESt10shared_ptrI4CoreET_S4_,"axG",@progbits,_ZN7Visitor3ad
 1735              		.align 2
 1736              		.weak	_ZN7Visitor3addI7ComplexEESt10shared_ptrI4CoreET_S4_
 1738              	_ZN7Visitor3addI7ComplexEESt10shared_ptrI4CoreET_S4_:
 1739              	.LFB2718:
  56:test.cpp      **** 	return c2->_add(t);
 1740              		.loc 6 56 7
 1741              		.cfi_startproc
 1742              		.cfi_personality 0x9b,DW.ref.__gxx_personality_v0
 1743              		.cfi_lsda 0x1b,.LLSDA2718
 1744 0000 F30F1EFA 		endbr64	
 1745 0004 55       		pushq	%rbp	#
 1746              		.cfi_def_cfa_offset 16
 1747              		.cfi_offset 6, -16
 1748 0005 4889E5   		movq	%rsp, %rbp	#,
 1749              		.cfi_def_cfa_register 6
 1750 0008 4154     		pushq	%r12	#
 1751 000a 53       		pushq	%rbx	#
 1752 000b 4883EC40 		subq	$64, %rsp	#,
 1753              		.cfi_offset 12, -24
 1754              		.cfi_offset 3, -32
 1755 000f 48897DC8 		movq	%rdi, -56(%rbp)	# .result_ptr, .result_ptr
 1756 0013 488975C0 		movq	%rsi, -64(%rbp)	# this, this
 1757 0017 488955B8 		movq	%rdx, -72(%rbp)	# t, t
 1758 001b 48894DB0 		movq	%rcx, -80(%rbp)	# c2, c2
 1759              	# test.cpp:56: sCore Visitor::add(T t, sCore c2){
  56:test.cpp      **** 	return c2->_add(t);
 1760              		.loc 6 56 7
 1761 001f 64488B04 		movq	%fs:40, %rax	# MEM[(<address-space-1> long unsigned int *)40B], tmp95
 1761      25280000 
 1761      00
 1762 0028 488945E8 		movq	%rax, -24(%rbp)	# tmp95, D.54890
 1763 002c 31C0     		xorl	%eax, %eax	# tmp95
 1764              	# test.cpp:57: 	return c2->_add(t);
  57:test.cpp      **** };
 1765              		.loc 6 57 13
 1766 002e 488B45B0 		movq	-80(%rbp), %rax	# c2, tmp87
 1767 0032 4889C7   		movq	%rax, %rdi	# tmp87,
 1768 0035 E8000000 		call	_ZNKSt19__shared_ptr_accessI4CoreLN9__gnu_cxx12_Lock_policyE2ELb0ELb0EEptEv	#
 1768      00
 1769 003a 4889C3   		movq	%rax, %rbx	#, _7
 1770              	# test.cpp:57: 	return c2->_add(t);
  57:test.cpp      **** };
 1771              		.loc 6 57 19
 1772 003d 488B03   		movq	(%rbx), %rax	# _7->_vptr.Core, _1
 1773 0040 4883C020 		addq	$32, %rax	#, _2
 1774 0044 4C8B20   		movq	(%rax), %r12	# *_2, _3
 1775 0047 488B55B8 		movq	-72(%rbp), %rdx	# t, tmp88
 1776 004b 488D45D0 		leaq	-48(%rbp), %rax	#, tmp89
 1777 004f 4889D6   		movq	%rdx, %rsi	# tmp88,
 1778 0052 4889C7   		movq	%rax, %rdi	# tmp89,
 1779 0055 E8000000 		call	_ZN7ComplexC1ERKS_	#
 1779      00
 1780 005a 488B45C8 		movq	-56(%rbp), %rax	# <retval>, tmp90
 1781 005e 488D55D0 		leaq	-48(%rbp), %rdx	#, tmp91
 1782 0062 4889DE   		movq	%rbx, %rsi	# _7,
 1783 0065 4889C7   		movq	%rax, %rdi	# tmp90,
 1784              	.LEHB7:
 1785 0068 41FFD4   		call	*%r12	# _3
 1786              	.LVL4:
 1787              	.LEHE7:
 1788 006b 488D45D0 		leaq	-48(%rbp), %rax	#, tmp92
 1789 006f 4889C7   		movq	%rax, %rdi	# tmp92,
 1790 0072 E8000000 		call	_ZN7ComplexD1Ev	#
 1790      00
 1791              	# test.cpp:58: };
  58:test.cpp      **** 
 1792              		.loc 6 58 1
 1793 0077 488B45E8 		movq	-24(%rbp), %rax	# D.54890, tmp96
 1794 007b 64483304 		xorq	%fs:40, %rax	# MEM[(<address-space-1> long unsigned int *)40B], tmp96
 1794      25280000 
 1794      00
 1795 0084 7425     		je	.L77	#,
 1796 0086 EB1E     		jmp	.L79	#
 1797              	.L78:
 1798 0088 F30F1EFA 		endbr64	
 1799 008c 4889C3   		movq	%rax, %rbx	#, tmp94
 1800              	# test.cpp:57: 	return c2->_add(t);
  57:test.cpp      **** };
 1801              		.loc 6 57 19
 1802 008f 488D45D0 		leaq	-48(%rbp), %rax	#, tmp93
 1803 0093 4889C7   		movq	%rax, %rdi	# tmp93,
 1804 0096 E8000000 		call	_ZN7ComplexD1Ev	#
 1804      00
 1805 009b 4889D8   		movq	%rbx, %rax	# tmp94, D.54889
 1806 009e 4889C7   		movq	%rax, %rdi	# D.54889,
 1807              	.LEHB8:
 1808 00a1 E8000000 		call	_Unwind_Resume@PLT	#
 1808      00
 1809              	.LEHE8:
 1810              	.L79:
 1811              	# test.cpp:58: };
  58:test.cpp      **** 
 1812              		.loc 6 58 1
 1813 00a6 E8000000 		call	__stack_chk_fail@PLT	#
 1813      00
 1814              	.L77:
 1815 00ab 488B45C8 		movq	-56(%rbp), %rax	# <retval>,
 1816 00af 4883C440 		addq	$64, %rsp	#,
 1817 00b3 5B       		popq	%rbx	#
 1818 00b4 415C     		popq	%r12	#
 1819 00b6 5D       		popq	%rbp	#
 1820              		.cfi_def_cfa 7, 8
 1821 00b7 C3       		ret	
 1822              		.cfi_endproc
 1823              	.LFE2718:
 1824              		.section	.gcc_except_table
 1825              	.LLSDA2718:
 1826 0020 FF       		.byte	0xff
 1827 0021 FF       		.byte	0xff
 1828 0022 01       		.byte	0x1
 1829 0023 0A       		.uleb128 .LLSDACSE2718-.LLSDACSB2718
 1830              	.LLSDACSB2718:
 1831 0024 68       		.uleb128 .LEHB7-.LFB2718
 1832 0025 03       		.uleb128 .LEHE7-.LEHB7
 1833 0026 8801     		.uleb128 .L78-.LFB2718
 1834 0028 00       		.uleb128 0
 1835 0029 A101     		.uleb128 .LEHB8-.LFB2718
 1836 002b 05       		.uleb128 .LEHE8-.LEHB8
 1837 002c 00       		.uleb128 0
 1838 002d 00       		.uleb128 0
 1839              	.LLSDACSE2718:
